(lp0
(ipyboost.adtree
SplitterNode
p1
(dp2
S'lchild'
p3
(lp4
I1
aI5
aI19
aI153
asS'index'
p5
I0
sS'lpredict'
p6
cnumpy.core.multiarray
scalar
p7
(cnumpy
dtype
p8
(S'f8'
p9
I0
I1
tp10
Rp11
(I3
S'<'
p12
NNNI-1
I-1
I0
tp13
bS'\x057\xc1\xcaG\xa1\x9a?'
p14
tp15
Rp16
sS'rpredict'
p17
F0.0
sS'_pre_conds'
p18
(lp19
sS'prt'
p20
NsS'cond'
p21
(ipyboost.conditions
TrueCondition
p22
(dp23
bsS'rchild'
p24
(lp25
sba(ipyboost.adtree
SplitterNode
p26
(dp27
g3
(lp28
I2
aI4
aI18
asg5
I1
sg6
g7
(g11
S'\x1b\xc1\xc6 \xd2q\xba?'
p29
tp30
Rp31
sg17
g7
(g11
S'\xd1\xc2\xb3\x0f\xdd\xc9\xdb\xbf'
p32
tp33
Rp34
sg18
(lp35
(ipyboost.conditions
TrueCondition
p36
(dp37
basg20
g1
sg21
(ipyboost.conditions
ThresholdCondition
p38
(dp39
g5
I25
sS'result'
p40
NsS'val'
p41
g7
(g11
S'\x00\x00\x00`!\xbb\xf3?'
p42
tp43
Rp44
sbsg24
(lp45
I10
aI45
asba(ipyboost.adtree
SplitterNode
p46
(dp47
g3
(lp48
I3
aI16
aI24
aI50
asg5
I2
sg6
g7
(g11
S'\x17\xae\xf6!I\xbd\xc5\xbf'
p49
tp50
Rp51
sg17
g7
(g11
S'q\xf4\xf8\x80ie\xd0?'
p52
tp53
Rp54
sg18
(lp55
g36
a(ipyboost.conditions
ThresholdCondition
p56
(dp57
g5
I25
sg40
I01
sg41
g44
sbasg20
g26
sg21
(ipyboost.conditions
ThresholdCondition
p58
(dp59
g5
I5
sg40
Nsg41
g7
(g11
S'\x00\x00\x00P\x9eU\xee?'
p60
tp61
Rp62
sbsg24
(lp63
I9
aI40
asba(ipyboost.adtree
SplitterNode
p64
(dp65
g3
(lp66
I6
aI32
asg5
I3
sg6
g7
(g11
S'k\xe9wH`\x1e\xdc\xbf'
p67
tp68
Rp69
sg17
g7
(g11
S'\xdd\xca\x0b\xe9\xbf\xfa\xc3?'
p70
tp71
Rp72
sg18
(lp73
g36
ag56
a(ipyboost.conditions
ThresholdCondition
p74
(dp75
g5
I5
sg40
I01
sg41
g62
sbasg20
g46
sg21
(ipyboost.conditions
ThresholdCondition
p76
(dp77
g5
I26
sg40
Nsg41
g7
(g11
S'\x00\x00\x00\xb0\xaae\xe8?'
p78
tp79
Rp80
sbsg24
(lp81
I87
aI161
asba(ipyboost.adtree
SplitterNode
p82
(dp83
g3
(lp84
I7
asg5
I4
sg6
g7
(g11
S'S\x90\x9e\xb4\xf7\r\xc7?'
p85
tp86
Rp87
sg17
g7
(g11
S'\x9e\xb0\xe8\xe8<\xdd\xd0\xbf'
p88
tp89
Rp90
sg18
(lp91
g36
a(ipyboost.conditions
ThresholdCondition
p92
(dp93
g5
I25
sg40
I01
sg41
g44
sbasg20
g26
sg21
(ipyboost.conditions
ThresholdCondition
p94
(dp95
g5
I27
sg40
Nsg41
g7
(g11
S'\x00\x00\x00\x00\xd1\x9b\xec?'
p96
tp97
Rp98
sbsg24
(lp99
I37
aI39
aI150
asba(ipyboost.adtree
SplitterNode
p100
(dp101
g3
(lp102
I11
asg5
I5
sg6
g7
(g11
S'\xd2\x935\x8amO\x8f\xbf'
p103
tp104
Rp105
sg17
g7
(g11
S'\xa0\xff\x8f\x99\x8a\xa1\x0b@'
p106
tp107
Rp108
sg18
(lp109
(ipyboost.conditions
TrueCondition
p110
(dp111
basg20
g1
sg21
(ipyboost.conditions
ThresholdCondition
p112
(dp113
g5
I5
sg40
Nsg41
g7
(g11
S'\x00\x00\x00\x80\x9a\x9d\x05@'
p114
tp115
Rp116
sbsg24
(lp117
sba(ipyboost.adtree
SplitterNode
p118
(dp119
g3
(lp120
sg5
I6
sg6
g7
(g11
S'\x87\x999\xd8\x87!\xb1\xbf'
p121
tp122
Rp123
sg17
g7
(g11
S'\xa0\xff\x8f\x99\x8a\xa1\x0b\xc0'
p124
tp125
Rp126
sg18
(lp127
g36
ag56
ag74
a(ipyboost.conditions
ThresholdCondition
p128
(dp129
g5
I26
sg40
I01
sg41
g80
sbasg20
g64
sg21
(ipyboost.conditions
ThresholdCondition
p130
(dp131
g5
I15
sg40
Nsg41
g7
(g11
S'\x00\x00\x00P\xee\x04\xf6?'
p132
tp133
Rp134
sbsg24
(lp135
sba(ipyboost.adtree
SplitterNode
p136
(dp137
g3
(lp138
I8
aI21
aI51
asg5
I7
sg6
g7
(g11
S'\x1e4-\xaf]\x19\xc3?'
p139
tp140
Rp141
sg17
g7
(g11
S'(\xa4\x87T@\xbb\xe2\xbf'
p142
tp143
Rp144
sg18
(lp145
g36
ag92
a(ipyboost.conditions
ThresholdCondition
p146
(dp147
g5
I27
sg40
I01
sg41
g98
sbasg20
g82
sg21
(ipyboost.conditions
ThresholdCondition
p148
(dp149
g5
I25
sg40
Nsg41
g7
(g11
S'\x00\x00\x00`i\x08\xf0?'
p150
tp151
Rp152
sbsg24
(lp153
I81
asba(ipyboost.adtree
SplitterNode
p154
(dp155
g3
(lp156
sg5
I8
sg6
g7
(g11
S'\x9fw\xd0\x8e\xd1\xca\xa4\xbf'
p157
tp158
Rp159
sg17
g7
(g11
S'\xa0\xff\x8f\x99\x8a\xa1\x0b@'
p160
tp161
Rp162
sg18
(lp163
g36
ag92
ag146
a(ipyboost.conditions
ThresholdCondition
p164
(dp165
g5
I25
sg40
I01
sg41
g152
sbasg20
g136
sg21
(ipyboost.conditions
ThresholdCondition
p166
(dp167
g5
I9
sg40
Nsg41
g7
(g11
S'\x00\x00\x00\x90}\\\xf5?'
p168
tp169
Rp170
sbsg24
(lp171
sba(ipyboost.adtree
SplitterNode
p172
(dp173
g3
(lp174
I41
aI97
aI171
asg5
I9
sg6
g7
(g11
S'\xcc#j\xff\xe8R\xdf\xbf'
p175
tp176
Rp177
sg17
g7
(g11
S'N\x16\x02[\xf9\x89\xc9?'
p178
tp179
Rp180
sg18
(lp181
g36
ag56
a(ipyboost.conditions
ThresholdCondition
p182
(dp183
g5
I5
sg40
I00
sg41
g62
sbasg20
g46
sg21
(ipyboost.conditions
ThresholdCondition
p184
(dp185
g5
I25
sg40
Nsg41
g7
(g11
S'\x00\x00\x00\xb0\xda\x11\xe3?'
p186
tp187
Rp188
sbsg24
(lp189
I13
aI46
asba(ipyboost.adtree
SplitterNode
p190
(dp191
g3
(lp192
I25
aI66
asg5
I10
sg6
g7
(g11
S'\xc8\xc4"r\xc9o\xd1\xbf'
p193
tp194
Rp195
sg17
g7
(g11
S'\x88\xdb\xe0h\xdb\xcc\xde?'
p196
tp197
Rp198
sg18
(lp199
g36
a(ipyboost.conditions
ThresholdCondition
p200
(dp201
g5
I25
sg40
I00
sg41
g44
sbasg20
g26
sg21
(ipyboost.conditions
ThresholdCondition
p202
(dp203
g5
I21
sg40
Nsg41
g7
(g11
S'\x00\x00\x00\xd0\xa5\xdb\xef?'
p204
tp205
Rp206
sbsg24
(lp207
I22
aI181
asba(ipyboost.adtree
SplitterNode
p208
(dp209
g3
(lp210
I15
aI36
aI62
asg5
I11
sg6
g7
(g11
S'\t\xb9f\x02\xf9\xe7\xa9?'
p211
tp212
Rp213
sg17
g7
(g11
S'\xd1\xbb\xf1\x99\xb0\xdf\xd5\xbf'
p214
tp215
Rp216
sg18
(lp217
g110
a(ipyboost.conditions
ThresholdCondition
p218
(dp219
g5
I5
sg40
I01
sg41
g116
sbasg20
g100
sg21
(ipyboost.conditions
ThresholdCondition
p220
(dp221
g5
I27
sg40
Nsg41
g7
(g11
S'\x00\x00\x00\xf0.\xa4\xf2?'
p222
tp223
Rp224
sbsg24
(lp225
I12
aI176
asba(ipyboost.adtree
SplitterNode
p226
(dp227
g3
(lp228
I20
aI47
aI151
asg5
I12
sg6
g7
(g11
S'\xc2\xfd\x11\xa3\x15\\\xb7?'
p229
tp230
Rp231
sg17
g7
(g11
S'\xa0\xff\x8f\x99\x8a\xa1\x0b\xc0'
p232
tp233
Rp234
sg18
(lp235
g110
ag218
a(ipyboost.conditions
ThresholdCondition
p236
(dp237
g5
I27
sg40
I00
sg41
g224
sbasg20
g208
sg21
(ipyboost.conditions
ThresholdCondition
p238
(dp239
g5
I3
sg40
Nsg41
g7
(g11
S'\x00\x00\x00\x00\xc4\r\x00@'
p240
tp241
Rp242
sbsg24
(lp243
sba(ipyboost.adtree
SplitterNode
p244
(dp245
g3
(lp246
I14
asg5
I13
sg6
g7
(g11
S'\x00\xce\xab\x0c\xdf\xd4\xa6?'
p247
tp248
Rp249
sg17
g7
(g11
S'\xa0\xff\x8f\x99\x8a\xa1\x0b@'
p250
tp251
Rp252
sg18
(lp253
g36
ag56
ag182
a(ipyboost.conditions
ThresholdCondition
p254
(dp255
g5
I25
sg40
I00
sg41
g188
sbasg20
g172
sg21
(ipyboost.conditions
ThresholdCondition
p256
(dp257
g5
I22
sg40
Nsg41
g7
(g11
S'\x00\x00\x00\xa0j\xf7\x00@'
p258
tp259
Rp260
sbsg24
(lp261
sba(ipyboost.adtree
SplitterNode
p262
(dp263
g3
(lp264
I147
asg5
I14
sg6
g7
(g11
S'\xeb\xf2"\xc7\xc7\xdd\xf4?'
p265
tp266
Rp267
sg17
g7
(g11
S'\xe1\xae\x10\xd2\xa4\x84\xb5\xbf'
p268
tp269
Rp270
sg18
(lp271
g36
ag56
ag182
ag254
a(ipyboost.conditions
ThresholdCondition
p272
(dp273
g5
I22
sg40
I01
sg41
g260
sbasg20
g244
sg21
(ipyboost.conditions
ThresholdCondition
p274
(dp275
g5
I1
sg40
Nsg41
g7
(g11
S'\x00\x00\x00\x10\xf0\xf3\xf4\xbf'
p276
tp277
Rp278
sbsg24
(lp279
sba(ipyboost.adtree
SplitterNode
p280
(dp281
g3
(lp282
I64
aI140
asg5
I15
sg6
g7
(g11
S'Few\xd2\xdf\x8c\xc4\xbf'
p283
tp284
Rp285
sg17
g7
(g11
S'D\xcf\xf5\x86\x0b\\\xc4?'
p286
tp287
Rp288
sg18
(lp289
g110
ag218
a(ipyboost.conditions
ThresholdCondition
p290
(dp291
g5
I27
sg40
I01
sg41
g224
sbasg20
g208
sg21
(ipyboost.conditions
ThresholdCondition
p292
(dp293
g5
I26
sg40
Nsg41
g7
(g11
S'\x00\x00\x00p6\x1a\xed?'
p294
tp295
Rp296
sbsg24
(lp297
I17
asba(ipyboost.adtree
SplitterNode
p298
(dp299
g3
(lp300
I23
aI29
asg5
I16
sg6
g7
(g11
S'\x1doQ\xa8h8\xd9?'
p301
tp302
Rp303
sg17
g7
(g11
S'\x99\x11\x95\xe4\xd8y\xbe\xbf'
p304
tp305
Rp306
sg18
(lp307
g36
ag56
a(ipyboost.conditions
ThresholdCondition
p308
(dp309
g5
I5
sg40
I01
sg41
g62
sbasg20
g46
sg21
(ipyboost.conditions
ThresholdCondition
p310
(dp311
g5
I22
sg40
Nsg41
g7
(g11
S'\x00\x00\x00\x10\x85\xeb\xe9?'
p312
tp313
Rp314
sbsg24
(lp315
I86
asba(ipyboost.adtree
SplitterNode
p316
(dp317
g3
(lp318
sg5
I17
sg6
g7
(g11
S'\xa0\xff\x8f\x99\x8a\xa1\x0b@'
p319
tp320
Rp321
sg17
g7
(g11
S'@\x8ds\xe4\xfa%\x87\xbf'
p322
tp323
Rp324
sg18
(lp325
g110
ag218
ag290
a(ipyboost.conditions
ThresholdCondition
p326
(dp327
g5
I26
sg40
I00
sg41
g296
sbasg20
g280
sg21
(ipyboost.conditions
ThresholdCondition
p328
(dp329
g5
I5
sg40
Nsg41
g7
(g11
S'\x00\x00\x00@\xe7\xeb\xdc?'
p330
tp331
Rp332
sbsg24
(lp333
I67
asba(ipyboost.adtree
SplitterNode
p334
(dp335
g3
(lp336
sg5
I18
sg6
g7
(g11
S';[J\xc3Jo\x08\xc0'
p337
tp338
Rp339
sg17
g7
(g11
S'>\xd8J:\x16}a?'
p340
tp341
Rp342
sg18
(lp343
g36
a(ipyboost.conditions
ThresholdCondition
p344
(dp345
g5
I25
sg40
I01
sg41
g44
sbasg20
g26
sg21
(ipyboost.conditions
ThresholdCondition
p346
(dp347
g5
I3
sg40
Nsg41
g7
(g11
S'\x00\x00\x00\x80\xcdX\xc2?'
p348
tp349
Rp350
sbsg24
(lp351
I35
asba(ipyboost.adtree
SplitterNode
p352
(dp353
g3
(lp354
I43
aI57
aI116
asg5
I19
sg6
g7
(g11
S'\x97\x00i\xe4m\x8a\xb5\xbf'
p355
tp356
Rp357
sg17
g7
(g11
S'\xf1\x1f\x14\x88|\xb2\xd0?'
p358
tp359
Rp360
sg18
(lp361
(ipyboost.conditions
TrueCondition
p362
(dp363
basg20
g1
sg21
(ipyboost.conditions
ThresholdCondition
p364
(dp365
g5
I17
sg40
Nsg41
g7
(g11
S'\x00\x00\x00\xc0\x03m\xf3?'
p366
tp367
Rp368
sbsg24
(lp369
I54
aI93
asba(ipyboost.adtree
SplitterNode
p370
(dp371
g3
(lp372
sg5
I20
sg6
g7
(g11
S'V74\xe4b\x83\xcd\xbf'
p373
tp374
Rp375
sg17
g7
(g11
S'\xa0\xff\x8f\x99\x8a\xa1\x0b@'
p376
tp377
Rp378
sg18
(lp379
g110
ag218
ag236
a(ipyboost.conditions
ThresholdCondition
p380
(dp381
g5
I3
sg40
I01
sg41
g242
sbasg20
g226
sg21
(ipyboost.conditions
ThresholdCondition
p382
(dp383
g5
I7
sg40
Nsg41
g7
(g11
S'\x00\x00\x00p\xd0\xd7\xf8?'
p384
tp385
Rp386
sbsg24
(lp387
sba(ipyboost.adtree
SplitterNode
p388
(dp389
g3
(lp390
sg5
I21
sg6
g7
(g11
S'\xa0\xff\x8f\x99\x8a\xa1\x0b\xc0'
p391
tp392
Rp393
sg17
g7
(g11
S'\xb7ZV\xb3a\xdd\xbd?'
p394
tp395
Rp396
sg18
(lp397
g36
ag92
ag146
a(ipyboost.conditions
ThresholdCondition
p398
(dp399
g5
I25
sg40
I01
sg41
g152
sbasg20
g136
sg21
(ipyboost.conditions
ThresholdCondition
p400
(dp401
g5
I14
sg40
Nsg41
g7
(g11
S'\x00\x00\x00 \xa3q\x02\xc0'
p402
tp403
Rp404
sbsg24
(lp405
sba(ipyboost.adtree
SplitterNode
p406
(dp407
g3
(lp408
sg5
I22
sg6
g7
(g11
S'\xa0\xff\x8f\x99\x8a\xa1\x0b\xc0'
p409
tp410
Rp411
sg17
g7
(g11
S'\xdf\xa8\x15\x0c\x8aK\xd0?'
p412
tp413
Rp414
sg18
(lp415
g36
ag200
a(ipyboost.conditions
ThresholdCondition
p416
(dp417
g5
I21
sg40
I00
sg41
g206
sbasg20
g190
sg21
(ipyboost.conditions
ThresholdCondition
p418
(dp419
g5
I19
sg40
Nsg41
g7
(g11
S'\x00\x00\x00\xc0\xd1\xe9\xf4\xbf'
p420
tp421
Rp422
sbsg24
(lp423
I55
aI145
asba(ipyboost.adtree
SplitterNode
p424
(dp425
g3
(lp426
sg5
I23
sg6
g7
(g11
S'\x1c\x93N\x03h\xf3\xba\xbf'
p427
tp428
Rp429
sg17
g7
(g11
S'\xa0\xff\x8f\x99\x8a\xa1\x0b@'
p430
tp431
Rp432
sg18
(lp433
g36
ag56
ag308
a(ipyboost.conditions
ThresholdCondition
p434
(dp435
g5
I22
sg40
I01
sg41
g314
sbasg20
g298
sg21
(ipyboost.conditions
ThresholdCondition
p436
(dp437
g5
I26
sg40
Nsg41
g7
(g11
S'\x00\x00\x00p>=\xf0?'
p438
tp439
Rp440
sbsg24
(lp441
sba(ipyboost.adtree
SplitterNode
p442
(dp443
g3
(lp444
I33
asg5
I24
sg6
g7
(g11
S"\xa5q'\xe1U\x9e\xe3?"
p445
tp446
Rp447
sg17
g7
(g11
S'\xe2\x02K_e6\xbb\xbf'
p448
tp449
Rp450
sg18
(lp451
g36
ag56
a(ipyboost.conditions
ThresholdCondition
p452
(dp453
g5
I5
sg40
I01
sg41
g62
sbasg20
g46
sg21
(ipyboost.conditions
ThresholdCondition
p454
(dp455
g5
I24
sg40
Nsg41
g7
(g11
S'\x00\x00\x00\x10v\x0b\xe4?'
p456
tp457
Rp458
sbsg24
(lp459
I26
aI56
asba(ipyboost.adtree
SplitterNode
p460
(dp461
g3
(lp462
I30
asg5
I25
sg6
g7
(g11
S'\xb37v\x90\xc8\n\x98?'
p463
tp464
Rp465
sg17
g7
(g11
S'\xa0\xff\x8f\x99\x8a\xa1\x0b\xc0'
p466
tp467
Rp468
sg18
(lp469
g36
ag200
a(ipyboost.conditions
ThresholdCondition
p470
(dp471
g5
I21
sg40
I01
sg41
g206
sbasg20
g190
sg21
(ipyboost.conditions
ThresholdCondition
p472
(dp473
g5
I1
sg40
Nsg41
g7
(g11
S'\x00\x00\x00\xb0\xd4\xdd\xef?'
p474
tp475
Rp476
sbsg24
(lp477
sba(ipyboost.adtree
SplitterNode
p478
(dp479
g3
(lp480
I27
aI127
asg5
I26
sg6
g7
(g11
S'Hf"C\xa8y\xe3\xbf'
p481
tp482
Rp483
sg17
g7
(g11
S'B\x91\xe6"z\xfa\xb1?'
p484
tp485
Rp486
sg18
(lp487
g36
ag56
ag452
a(ipyboost.conditions
ThresholdCondition
p488
(dp489
g5
I24
sg40
I00
sg41
g458
sbasg20
g442
sg21
(ipyboost.conditions
ThresholdCondition
p490
(dp491
g5
I27
sg40
Nsg41
g7
(g11
S'\x00\x00\x00\x80\xe9\xfb\xe5?'
p492
tp493
Rp494
sbsg24
(lp495
I31
asba(ipyboost.adtree
SplitterNode
p496
(dp497
g3
(lp498
sg5
I27
sg6
g7
(g11
S'\xa0*\xea\x16\x86\x8c\r\xc0'
p499
tp500
Rp501
sg17
g7
(g11
S'3\xfe\xa1Ib\xc3\xde?'
p502
tp503
Rp504
sg18
(lp505
g36
ag56
ag452
ag488
a(ipyboost.conditions
ThresholdCondition
p506
(dp507
g5
I27
sg40
I01
sg41
g494
sbasg20
g478
sg21
(ipyboost.conditions
ThresholdCondition
p508
(dp509
g5
I19
sg40
Nsg41
g7
(g11
S'\x00\x00\x00\xb0\x1bW\xc2?'
p510
tp511
Rp512
sbsg24
(lp513
I28
asba(ipyboost.adtree
SplitterNode
p514
(dp515
g3
(lp516
sg5
I28
sg6
g7
(g11
S'c*\x1d\xa3\xfd\xf4\x0e@'
p517
tp518
Rp519
sg17
g7
(g11
S'7\xa8\xf7\x1bD\x16\xe3\xbf'
p520
tp521
Rp522
sg18
(lp523
g36
ag56
ag452
ag488
ag506
a(ipyboost.conditions
ThresholdCondition
p524
(dp525
g5
I19
sg40
I00
sg41
g512
sbasg20
g496
sg21
(ipyboost.conditions
ThresholdCondition
p526
(dp527
g5
I19
sg40
Nsg41
g7
(g11
S'\x00\x00\x00\x80\xfa"\xcd?'
p528
tp529
Rp530
sbsg24
(lp531
sba(ipyboost.adtree
SplitterNode
p532
(dp533
g3
(lp534
I82
asg5
I29
sg6
g7
(g11
S'\x11\xf9\x8d\xab#\xc2\xa5\xbf'
p535
tp536
Rp537
sg17
g7
(g11
S'G\x19TX)\xed\x06@'
p538
tp539
Rp540
sg18
(lp541
g36
ag56
ag308
a(ipyboost.conditions
ThresholdCondition
p542
(dp543
g5
I22
sg40
I01
sg41
g314
sbasg20
g298
sg21
(ipyboost.conditions
ThresholdCondition
p544
(dp545
g5
I17
sg40
Nsg41
g7
(g11
S'\x00\x00\x00@\xd2W\xef?'
p546
tp547
Rp548
sbsg24
(lp549
sba(ipyboost.adtree
SplitterNode
p550
(dp551
g3
(lp552
sg5
I30
sg6
g7
(g11
S'\xf6\xe2\xe8\x04\x96\x04\xb3?'
p553
tp554
Rp555
sg17
g7
(g11
S'\xa0\xff\x8f\x99\x8a\xa1\x0b\xc0'
p556
tp557
Rp558
sg18
(lp559
g36
ag200
ag470
a(ipyboost.conditions
ThresholdCondition
p560
(dp561
g5
I1
sg40
I01
sg41
g476
sbasg20
g460
sg21
(ipyboost.conditions
ThresholdCondition
p562
(dp563
g5
I10
sg40
Nsg41
g7
(g11
S'\x00\x00\x00\xf0\xd6O\xf3?'
p564
tp565
Rp566
sbsg24
(lp567
sba(ipyboost.adtree
SplitterNode
p568
(dp569
g3
(lp570
sg5
I31
sg6
g7
(g11
S'\xe3\x98\xb23l\xf7c?'
p571
tp572
Rp573
sg17
g7
(g11
S'\xa0\xff\x8f\x99\x8a\xa1\x0b\xc0'
p574
tp575
Rp576
sg18
(lp577
g36
ag56
ag452
ag488
a(ipyboost.conditions
ThresholdCondition
p578
(dp579
g5
I27
sg40
I00
sg41
g494
sbasg20
g478
sg21
(ipyboost.conditions
ThresholdCondition
p580
(dp581
g5
I14
sg40
Nsg41
g7
(g11
S'\x00\x00\x00\xb8\x9e\x12\x00@'
p582
tp583
Rp584
sbsg24
(lp585
sba(ipyboost.adtree
SplitterNode
p586
(dp587
g3
(lp588
I34
asg5
I32
sg6
g7
(g11
S'\xabW!\xe32\x8c\xd9\xbf'
p589
tp590
Rp591
sg17
g7
(g11
S'{1\\\x8cL\x91\xe0?'
p592
tp593
Rp594
sg18
(lp595
g36
ag56
ag74
a(ipyboost.conditions
ThresholdCondition
p596
(dp597
g5
I26
sg40
I01
sg41
g80
sbasg20
g64
sg21
(ipyboost.conditions
ThresholdCondition
p598
(dp599
g5
I23
sg40
Nsg41
g7
(g11
S'\x00\x00\x00\xf0\xfc\xe0\xef?'
p600
tp601
Rp602
sbsg24
(lp603
I107
asba(ipyboost.adtree
SplitterNode
p604
(dp605
g3
(lp606
sg5
I33
sg6
g7
(g11
S'\xd6\x93\xca\x94s\xde\x82\xbf'
p607
tp608
Rp609
sg17
g7
(g11
S'\xa0\xff\x8f\x99\x8a\xa1\x0b@'
p610
tp611
Rp612
sg18
(lp613
g36
ag56
ag452
a(ipyboost.conditions
ThresholdCondition
p614
(dp615
g5
I24
sg40
I01
sg41
g458
sbasg20
g442
sg21
(ipyboost.conditions
ThresholdCondition
p616
(dp617
g5
I13
sg40
Nsg41
g7
(g11
S'\x00\x00\x00\x00\xca`\xf1?'
p618
tp619
Rp620
sbsg24
(lp621
sba(ipyboost.adtree
SplitterNode
p622
(dp623
g3
(lp624
I53
asg5
I34
sg6
g7
(g11
S'+\xf0\xbc\xf4\xfd\xe7\xcb?'
p625
tp626
Rp627
sg17
g7
(g11
S'\x15\x80[\x94\x19\xd5\x01\xc0'
p628
tp629
Rp630
sg18
(lp631
g36
ag56
ag74
ag596
a(ipyboost.conditions
ThresholdCondition
p632
(dp633
g5
I23
sg40
I01
sg41
g602
sbasg20
g586
sg21
(ipyboost.conditions
ThresholdCondition
p634
(dp635
g5
I22
sg40
Nsg41
g7
(g11
S'\x00\x00\x00Pe\x94\xed?'
p636
tp637
Rp638
sbsg24
(lp639
I152
asba(ipyboost.adtree
SplitterNode
p640
(dp641
g3
(lp642
sg5
I35
sg6
g7
(g11
S'\xd1\x9a\x14\x1a\xf0@\x94?'
p643
tp644
Rp645
sg17
g7
(g11
S'\xa0\xff\x8f\x99\x8a\xa1\x0b\xc0'
p646
tp647
Rp648
sg18
(lp649
g36
ag344
a(ipyboost.conditions
ThresholdCondition
p650
(dp651
g5
I3
sg40
I00
sg41
g350
sbasg20
g334
sg21
(ipyboost.conditions
ThresholdCondition
p652
(dp653
g5
I0
sg40
Nsg41
g7
(g11
S'\x00\x00\x00`\xea\xbb\x08@'
p654
tp655
Rp656
sbsg24
(lp657
sba(ipyboost.adtree
SplitterNode
p658
(dp659
g3
(lp660
sg5
I36
sg6
g7
(g11
S'J\xb7\xcd\xd7g\x15\x95\xbf'
p661
tp662
Rp663
sg17
g7
(g11
S'\x0b\x04[#\xd8\xff\x03@'
p664
tp665
Rp666
sg18
(lp667
g110
ag218
a(ipyboost.conditions
ThresholdCondition
p668
(dp669
g5
I27
sg40
I01
sg41
g224
sbasg20
g208
sg21
(ipyboost.conditions
ThresholdCondition
p670
(dp671
g5
I5
sg40
Nsg41
g7
(g11
S'\x00\x00\x00`\x01!\xfb?'
p672
tp673
Rp674
sbsg24
(lp675
sba(ipyboost.adtree
SplitterNode
p676
(dp677
g3
(lp678
I38
asg5
I37
sg6
g7
(g11
S'4\xfb\x05~/\x1c\xbb\xbf'
p679
tp680
Rp681
sg17
g7
(g11
S'=\xbcYA\xe9\x95\xe5?'
p682
tp683
Rp684
sg18
(lp685
g36
ag92
a(ipyboost.conditions
ThresholdCondition
p686
(dp687
g5
I27
sg40
I00
sg41
g98
sbasg20
g82
sg21
(ipyboost.conditions
ThresholdCondition
p688
(dp689
g5
I2
sg40
Nsg41
g7
(g11
S'\x00\x00\x00\xe0\xc2\xbe\xf4?'
p690
tp691
Rp692
sbsg24
(lp693
I48
aI136
asba(ipyboost.adtree
SplitterNode
p694
(dp695
g3
(lp696
I60
asg5
I38
sg6
g7
(g11
S')Bjbcx\xab?'
p697
tp698
Rp699
sg17
g7
(g11
S'\xa0\xff\x8f\x99\x8a\xa1\x0b\xc0'
p700
tp701
Rp702
sg18
(lp703
g36
ag92
ag686
a(ipyboost.conditions
ThresholdCondition
p704
(dp705
g5
I2
sg40
I01
sg41
g692
sbasg20
g676
sg21
(ipyboost.conditions
ThresholdCondition
p706
(dp707
g5
I2
sg40
Nsg41
g7
(g11
S'\x00\x00\x00\x90\xfd\x9c\xf3?'
p708
tp709
Rp710
sbsg24
(lp711
sba(ipyboost.adtree
SplitterNode
p712
(dp713
g3
(lp714
sg5
I39
sg6
g7
(g11
S'\xa0\xff\x8f\x99\x8a\xa1\x0b\xc0'
p715
tp716
Rp717
sg17
g7
(g11
S'\x01P\x7f\xa4\x83\xb7\xa0?'
p718
tp719
Rp720
sg18
(lp721
g36
ag92
a(ipyboost.conditions
ThresholdCondition
p722
(dp723
g5
I27
sg40
I00
sg41
g98
sbasg20
g82
sg21
(ipyboost.conditions
ThresholdCondition
p724
(dp725
g5
I13
sg40
Nsg41
g7
(g11
S'\x00\x00\x00\x00.e\xd6?'
p726
tp727
Rp728
sbsg24
(lp729
sba(ipyboost.adtree
SplitterNode
p730
(dp731
g3
(lp732
sg5
I40
sg6
g7
(g11
S'\x81\x08a\xe5G\x91\x07@'
p733
tp734
Rp735
sg17
g7
(g11
S'a\x9d\xed$l"\x8c\xbf'
p736
tp737
Rp738
sg18
(lp739
g36
ag56
a(ipyboost.conditions
ThresholdCondition
p740
(dp741
g5
I5
sg40
I00
sg41
g62
sbasg20
g46
sg21
(ipyboost.conditions
ThresholdCondition
p742
(dp743
g5
I5
sg40
Nsg41
g7
(g11
S'\x00\x00\x00\xf0\x8b\xae\xee?'
p744
tp745
Rp746
sbsg24
(lp747
sba(ipyboost.adtree
SplitterNode
p748
(dp749
g3
(lp750
I42
aI96
asg5
I41
sg6
g7
(g11
S'l\xccD\x96|\xf6\xc4?'
p751
tp752
Rp753
sg17
g7
(g11
S'\x1f\x9aG\xcd\x9aW\x01\xc0'
p754
tp755
Rp756
sg18
(lp757
g36
ag56
ag182
a(ipyboost.conditions
ThresholdCondition
p758
(dp759
g5
I25
sg40
I01
sg41
g188
sbasg20
g172
sg21
(ipyboost.conditions
ThresholdCondition
p760
(dp761
g5
I26
sg40
Nsg41
g7
(g11
S'\x00\x00\x00\x10~8\xf0?'
p762
tp763
Rp764
sbsg24
(lp765
sba(ipyboost.adtree
SplitterNode
p766
(dp767
g3
(lp768
sg5
I42
sg6
g7
(g11
S'\xa0\xff\x8f\x99\x8a\xa1\x0b@'
p769
tp770
Rp771
sg17
g7
(g11
S'\xeb\xa8\x94\xde\xe1\x07\xc7\xbf'
p772
tp773
Rp774
sg18
(lp775
g36
ag56
ag182
ag758
a(ipyboost.conditions
ThresholdCondition
p776
(dp777
g5
I26
sg40
I01
sg41
g764
sbasg20
g748
sg21
(ipyboost.conditions
ThresholdCondition
p778
(dp779
g5
I17
sg40
Nsg41
g7
(g11
S'\x00\x00\x00\x90\xaeC\xe1?'
p780
tp781
Rp782
sbsg24
(lp783
sba(ipyboost.adtree
SplitterNode
p784
(dp785
g3
(lp786
I44
asg5
I43
sg6
g7
(g11
S'x\xa2\x7f\xaf\x8eB\x87?'
p787
tp788
Rp789
sg17
g7
(g11
S'\xc5\xb9\ri\xfd\x15\xf0\xbf'
p790
tp791
Rp792
sg18
(lp793
g362
a(ipyboost.conditions
ThresholdCondition
p794
(dp795
g5
I17
sg40
I01
sg41
g368
sbasg20
g352
sg21
(ipyboost.conditions
ThresholdCondition
p796
(dp797
g5
I13
sg40
Nsg41
g7
(g11
S'\x00\x00\x00\xa0\xa2)\xfc?'
p798
tp799
Rp800
sbsg24
(lp801
I143
asba(ipyboost.adtree
SplitterNode
p802
(dp803
g3
(lp804
sg5
I44
sg6
g7
(g11
S'f\xe8\xb6E\xcfn\x90?'
p805
tp806
Rp807
sg17
g7
(g11
S'\xa0\xff\x8f\x99\x8a\xa1\x0b\xc0'
p808
tp809
Rp810
sg18
(lp811
g362
ag794
a(ipyboost.conditions
ThresholdCondition
p812
(dp813
g5
I13
sg40
I01
sg41
g800
sbasg20
g784
sg21
(ipyboost.conditions
ThresholdCondition
p814
(dp815
g5
I25
sg40
Nsg41
g7
(g11
S'\x00\x00\x00@;-\x00@'
p816
tp817
Rp818
sbsg24
(lp819
sba(ipyboost.adtree
SplitterNode
p820
(dp821
g3
(lp822
sg5
I45
sg6
g7
(g11
S'\xa0\xff\x8f\x99\x8a\xa1\x0b\xc0'
p823
tp824
Rp825
sg17
g7
(g11
S'(/\xb4jJn\xbc?'
p826
tp827
Rp828
sg18
(lp829
g36
a(ipyboost.conditions
ThresholdCondition
p830
(dp831
g5
I25
sg40
I00
sg41
g44
sbasg20
g26
sg21
(ipyboost.conditions
ThresholdCondition
p832
(dp833
g5
I18
sg40
Nsg41
g7
(g11
S'\x00\x00\x00\xb0\x89\x82\xfc\xbf'
p834
tp835
Rp836
sbsg24
(lp837
I78
asba(ipyboost.adtree
SplitterNode
p838
(dp839
g3
(lp840
I72
asg5
I46
sg6
g7
(g11
S'\xa2\xf2L+\x0f\t\x9e\xbf'
p841
tp842
Rp843
sg17
g7
(g11
S'\xfa\xab\xc1\xf4\x8c\x18\xf7?'
p844
tp845
Rp846
sg18
(lp847
g36
ag56
ag182
a(ipyboost.conditions
ThresholdCondition
p848
(dp849
g5
I25
sg40
I00
sg41
g188
sbasg20
g172
sg21
(ipyboost.conditions
ThresholdCondition
p850
(dp851
g5
I9
sg40
Nsg41
g7
(g11
S'\x00\x00\x00\x90\xaeI\xfb?'
p852
tp853
Rp854
sbsg24
(lp855
sba(ipyboost.adtree
SplitterNode
p856
(dp857
g3
(lp858
sg5
I47
sg6
g7
(g11
S'wG\xbb\x1c_\xb9\x03\xc0'
p859
tp860
Rp861
sg17
g7
(g11
S'\xb7\xc1\x05:\xe0\x1f\xb6?'
p862
tp863
Rp864
sg18
(lp865
g110
ag218
ag236
a(ipyboost.conditions
ThresholdCondition
p866
(dp867
g5
I3
sg40
I01
sg41
g242
sbasg20
g226
sg21
(ipyboost.conditions
ThresholdCondition
p868
(dp869
g5
I27
sg40
Nsg41
g7
(g11
S'\x00\x00\x00\xb0V9\xf3?'
p870
tp871
Rp872
sbsg24
(lp873
I74
asba(ipyboost.adtree
SplitterNode
p874
(dp875
g3
(lp876
sg5
I48
sg6
g7
(g11
S'<sL<\x9c\xb0\xf7?'
p877
tp878
Rp879
sg17
g7
(g11
S'\xdb?:.i\x08\xe7\xbf'
p880
tp881
Rp882
sg18
(lp883
g36
ag92
ag686
a(ipyboost.conditions
ThresholdCondition
p884
(dp885
g5
I2
sg40
I00
sg41
g692
sbasg20
g676
sg21
(ipyboost.conditions
ThresholdCondition
p886
(dp887
g5
I20
sg40
Nsg41
g7
(g11
S'\x00\x00\x00\xd8\x9c\x9c\x02@'
p888
tp889
Rp890
sbsg24
(lp891
I49
asba(ipyboost.adtree
SplitterNode
p892
(dp893
g3
(lp894
sg5
I49
sg6
g7
(g11
S'd\x01e\xc5~\xc7\x15@'
p895
tp896
Rp897
sg17
g7
(g11
S'o\x86\xcf\x04_\x00\x00\xc0'
p898
tp899
Rp900
sg18
(lp901
g36
ag92
ag686
ag884
a(ipyboost.conditions
ThresholdCondition
p902
(dp903
g5
I20
sg40
I00
sg41
g890
sbasg20
g874
sg21
(ipyboost.conditions
ThresholdCondition
p904
(dp905
g5
I3
sg40
Nsg41
g7
(g11
S'\x00\x00\x00@\x11\xc6\xec?'
p906
tp907
Rp908
sbsg24
(lp909
sba(ipyboost.adtree
SplitterNode
p910
(dp911
g3
(lp912
sg5
I50
sg6
g7
(g11
S'\x9f\xea%\xd2p/\xc0\xbf'
p913
tp914
Rp915
sg17
g7
(g11
S'\x1fQ\xcf{\x1e\x93\xdb?'
p916
tp917
Rp918
sg18
(lp919
g36
ag56
a(ipyboost.conditions
ThresholdCondition
p920
(dp921
g5
I5
sg40
I01
sg41
g62
sbasg20
g46
sg21
(ipyboost.conditions
ThresholdCondition
p922
(dp923
g5
I9
sg40
Nsg41
g7
(g11
S'\x00\x00\x00\xc0\xd8\x7f\xf0?'
p924
tp925
Rp926
sbsg24
(lp927
I58
asba(ipyboost.adtree
SplitterNode
p928
(dp929
g3
(lp930
I85
asg5
I51
sg6
g7
(g11
S'\x12\x0e\x11|\xfa\x13\xc9\xbf'
p931
tp932
Rp933
sg17
g7
(g11
S'\xe5\x1b\xc7a\x86m\xd2?'
p934
tp935
Rp936
sg18
(lp937
g36
ag92
ag146
a(ipyboost.conditions
ThresholdCondition
p938
(dp939
g5
I25
sg40
I01
sg41
g152
sbasg20
g136
sg21
(ipyboost.conditions
ThresholdCondition
p940
(dp941
g5
I1
sg40
Nsg41
g7
(g11
S'\x00\x00\x00 \t\xd6\xb3\xbf'
p942
tp943
Rp944
sbsg24
(lp945
I52
asba(ipyboost.adtree
SplitterNode
p946
(dp947
g3
(lp948
I95
asg5
I52
sg6
g7
(g11
S'\x89_\xd4[\x90\xff\xf7?'
p949
tp950
Rp951
sg17
g7
(g11
S'\xb6GN\xcb^\xa6\xb6\xbf'
p952
tp953
Rp954
sg18
(lp955
g36
ag92
ag146
ag938
a(ipyboost.conditions
ThresholdCondition
p956
(dp957
g5
I1
sg40
I00
sg41
g944
sbasg20
g928
sg21
(ipyboost.conditions
ThresholdCondition
p958
(dp959
g5
I3
sg40
Nsg41
g7
(g11
S'\x00\x00\x000\x90\x15\xd8?'
p960
tp961
Rp962
sbsg24
(lp963
I99
aI130
asba(ipyboost.adtree
SplitterNode
p964
(dp965
g3
(lp966
I120
asg5
I53
sg6
g7
(g11
S'\xb8\x89\r\x80\xfa\xce\xde?'
p967
tp968
Rp969
sg17
g7
(g11
S':\xc1E\xdc\x9b;\x00\xc0'
p970
tp971
Rp972
sg18
(lp973
g36
ag56
ag74
ag596
ag632
a(ipyboost.conditions
ThresholdCondition
p974
(dp975
g5
I22
sg40
I01
sg41
g638
sbasg20
g622
sg21
(ipyboost.conditions
ThresholdCondition
p976
(dp977
g5
I10
sg40
Nsg41
g7
(g11
S'\x00\x00\x00`^\x83\xdb?'
p978
tp979
Rp980
sbsg24
(lp981
sba(ipyboost.adtree
SplitterNode
p982
(dp983
g3
(lp984
sg5
I54
sg6
g7
(g11
S'8\x03/\xe9v!\x07@'
p985
tp986
Rp987
sg17
g7
(g11
S'^%\xff\x1f\x97"\xb5\xbf'
p988
tp989
Rp990
sg18
(lp991
g362
a(ipyboost.conditions
ThresholdCondition
p992
(dp993
g5
I17
sg40
I00
sg41
g368
sbasg20
g352
sg21
(ipyboost.conditions
ThresholdCondition
p994
(dp995
g5
I17
sg40
Nsg41
g7
(g11
S'\x00\x00\x00\x00.\xdc\xf3?'
p996
tp997
Rp998
sbsg24
(lp999
I114
aI133
asba(ipyboost.adtree
SplitterNode
p1000
(dp1001
g3
(lp1002
sg5
I55
sg6
g7
(g11
S'\xcb~/\x11Xv\xdb?'
p1003
tp1004
Rp1005
sg17
g7
(g11
S'\xee\xbbXA\x9cj\x00\xc0'
p1006
tp1007
Rp1008
sg18
(lp1009
g36
ag200
ag416
a(ipyboost.conditions
ThresholdCondition
p1010
(dp1011
g5
I19
sg40
I00
sg41
g422
sbasg20
g406
sg21
(ipyboost.conditions
ThresholdCondition
p1012
(dp1013
g5
I11
sg40
Nsg41
g7
(g11
S'\x00\x00\x00\x00\xe6D\xf1?'
p1014
tp1015
Rp1016
sbsg24
(lp1017
sba(ipyboost.adtree
SplitterNode
p1018
(dp1019
g3
(lp1020
I63
asg5
I56
sg6
g7
(g11
S'\xcc\xec\xc8\xbd\xa4\x9e\xdb?'
p1021
tp1022
Rp1023
sg17
g7
(g11
S'\xb5\xcf!0\x05\xde\xc4\xbf'
p1024
tp1025
Rp1026
sg18
(lp1027
g36
ag56
ag452
a(ipyboost.conditions
ThresholdCondition
p1028
(dp1029
g5
I24
sg40
I00
sg41
g458
sbasg20
g442
sg21
(ipyboost.conditions
ThresholdCondition
p1030
(dp1031
g5
I19
sg40
Nsg41
g7
(g11
S'\x00\x00\x00 v\x14\xf3\xbf'
p1032
tp1033
Rp1034
sbsg24
(lp1035
sba(ipyboost.adtree
SplitterNode
p1036
(dp1037
g3
(lp1038
I59
asg5
I57
sg6
g7
(g11
S'\x18\xf2\xf8\xe4P`\xe3?'
p1039
tp1040
Rp1041
sg17
g7
(g11
S'\x97\xf2\xda\x14%\xd0\xa8\xbf'
p1042
tp1043
Rp1044
sg18
(lp1045
g362
a(ipyboost.conditions
ThresholdCondition
p1046
(dp1047
g5
I17
sg40
I01
sg41
g368
sbasg20
g352
sg21
(ipyboost.conditions
ThresholdCondition
p1048
(dp1049
g5
I21
sg40
Nsg41
g7
(g11
S"\x00\x00\x00\xc0'\x9d\xe4?"
p1050
tp1051
Rp1052
sbsg24
(lp1053
I110
asba(ipyboost.adtree
SplitterNode
p1054
(dp1055
g3
(lp1056
I61
asg5
I58
sg6
g7
(g11
S'\x8a)\xba\x15)\x88\xdb?'
p1057
tp1058
Rp1059
sg17
g7
(g11
S't\xee\x90\x0e\xc1\xb3\xeb\xbf'
p1060
tp1061
Rp1062
sg18
(lp1063
g36
ag56
ag920
a(ipyboost.conditions
ThresholdCondition
p1064
(dp1065
g5
I9
sg40
I00
sg41
g926
sbasg20
g910
sg21
(ipyboost.conditions
ThresholdCondition
p1066
(dp1067
g5
I0
sg40
Nsg41
g7
(g11
S'\x00\x00\x00\x101\xfa\xf2?'
p1068
tp1069
Rp1070
sbsg24
(lp1071
sba(ipyboost.adtree
SplitterNode
p1072
(dp1073
g3
(lp1074
sg5
I59
sg6
g7
(g11
S'\xd8Y\xdc5H\xa2\xce\xbf'
p1075
tp1076
Rp1077
sg17
g7
(g11
S'8\xec0\xcf\xe6\x00\x04@'
p1078
tp1079
Rp1080
sg18
(lp1081
g362
ag1046
a(ipyboost.conditions
ThresholdCondition
p1082
(dp1083
g5
I21
sg40
I01
sg41
g1052
sbasg20
g1036
sg21
(ipyboost.conditions
ThresholdCondition
p1084
(dp1085
g5
I13
sg40
Nsg41
g7
(g11
S'\x00\x00\x00\x101R\xeb?'
p1086
tp1087
Rp1088
sbsg24
(lp1089
sba(ipyboost.adtree
SplitterNode
p1090
(dp1091
g3
(lp1092
I77
asg5
I60
sg6
g7
(g11
S'p\x88C\xfe0\x19\xc2?'
p1093
tp1094
Rp1095
sg17
g7
(g11
S'\xd1\xe1\xfcJ\x15\\\xe5\xbf'
p1096
tp1097
Rp1098
sg18
(lp1099
g36
ag92
ag686
ag704
a(ipyboost.conditions
ThresholdCondition
p1100
(dp1101
g5
I2
sg40
I01
sg41
g710
sbasg20
g694
sg21
(ipyboost.conditions
ThresholdCondition
p1102
(dp1103
g5
I18
sg40
Nsg41
g7
(g11
S'\x00\x00\x00P\x83C\xe8?'
p1104
tp1105
Rp1106
sbsg24
(lp1107
I70
asba(ipyboost.adtree
SplitterNode
p1108
(dp1109
g3
(lp1110
sg5
I61
sg6
g7
(g11
S'\x08\xc9\xee\r\xcc\x11\xff?'
p1111
tp1112
Rp1113
sg17
g7
(g11
S'\n1r~\x9f\x18\xcc\xbf'
p1114
tp1115
Rp1116
sg18
(lp1117
g36
ag56
ag920
ag1064
a(ipyboost.conditions
ThresholdCondition
p1118
(dp1119
g5
I0
sg40
I01
sg41
g1070
sbasg20
g1054
sg21
(ipyboost.conditions
ThresholdCondition
p1120
(dp1121
g5
I19
sg40
Nsg41
g7
(g11
S'\x00\x00\x00P\x8c\xdf\xe4\xbf'
p1122
tp1123
Rp1124
sbsg24
(lp1125
I105
asba(ipyboost.adtree
SplitterNode
p1126
(dp1127
g3
(lp1128
sg5
I62
sg6
g7
(g11
S'\xa7\xd3\xb0W\xaa|\xb3\xbf'
p1129
tp1130
Rp1131
sg17
g7
(g11
S'\xd3\xdc|\xc1\xd8\xb1\xdc?'
p1132
tp1133
Rp1134
sg18
(lp1135
g110
ag218
a(ipyboost.conditions
ThresholdCondition
p1136
(dp1137
g5
I27
sg40
I01
sg41
g224
sbasg20
g208
sg21
(ipyboost.conditions
ThresholdCondition
p1138
(dp1139
g5
I22
sg40
Nsg41
g7
(g11
S'\x00\x00\x00\x00\x87\xe1\xf1?'
p1140
tp1141
Rp1142
sbsg24
(lp1143
I65
asba(ipyboost.adtree
SplitterNode
p1144
(dp1145
g3
(lp1146
sg5
I63
sg6
g7
(g11
S'\x9c\xe6p\xe4\xc8\xdb\xdc?'
p1147
tp1148
Rp1149
sg17
g7
(g11
S'r0u\x06\x90\xfd\xf0\xbf'
p1150
tp1151
Rp1152
sg18
(lp1153
g36
ag56
ag452
ag1028
a(ipyboost.conditions
ThresholdCondition
p1154
(dp1155
g5
I19
sg40
I01
sg41
g1034
sbasg20
g1018
sg21
(ipyboost.conditions
ThresholdCondition
p1156
(dp1157
g5
I21
sg40
Nsg41
g7
(g11
S'\x00\x00\x00\xc0\x98e\xf0?'
p1158
tp1159
Rp1160
sbsg24
(lp1161
sba(ipyboost.adtree
SplitterNode
p1162
(dp1163
g3
(lp1164
sg5
I64
sg6
g7
(g11
S'\xf7\xb1\x1f\x88\xb3N\x8d\xbf'
p1165
tp1166
Rp1167
sg17
g7
(g11
S'\xf6\xd1\x99\xc1\xe1\xac\t\xc0'
p1168
tp1169
Rp1170
sg18
(lp1171
g110
ag218
ag290
a(ipyboost.conditions
ThresholdCondition
p1172
(dp1173
g5
I26
sg40
I01
sg41
g296
sbasg20
g280
sg21
(ipyboost.conditions
ThresholdCondition
p1174
(dp1175
g5
I22
sg40
Nsg41
g7
(g11
S'\x00\x00\x00\xb0\xb8\xbf\xf3?'
p1176
tp1177
Rp1178
sbsg24
(lp1179
sba(ipyboost.adtree
SplitterNode
p1180
(dp1181
g3
(lp1182
I80
asg5
I65
sg6
g7
(g11
S'\xc7\xa19\xd4s*\xd6\xbf'
p1183
tp1184
Rp1185
sg17
g7
(g11
S'\xb4O\xa5\xaf\\\xfb\xe6?'
p1186
tp1187
Rp1188
sg18
(lp1189
g110
ag218
ag1136
a(ipyboost.conditions
ThresholdCondition
p1190
(dp1191
g5
I22
sg40
I00
sg41
g1142
sbasg20
g1126
sg21
(ipyboost.conditions
ThresholdCondition
p1192
(dp1193
g5
I15
sg40
Nsg41
g7
(g11
S'\x00\x00\x00\xe0\xfcp\xe2\xbf'
p1194
tp1195
Rp1196
sbsg24
(lp1197
I71
asba(ipyboost.adtree
SplitterNode
p1198
(dp1199
g3
(lp1200
I73
asg5
I66
sg6
g7
(g11
S'\x0fB \xffa\x17\xe9\xbf'
p1201
tp1202
Rp1203
sg17
g7
(g11
S'\xc1\xcb:}k\xc8\xcd?'
p1204
tp1205
Rp1206
sg18
(lp1207
g36
ag200
a(ipyboost.conditions
ThresholdCondition
p1208
(dp1209
g5
I21
sg40
I01
sg41
g206
sbasg20
g190
sg21
(ipyboost.conditions
ThresholdCondition
p1210
(dp1211
g5
I0
sg40
Nsg41
g7
(g11
S'\x00\x00\x00`\x1f\xe8\xea?'
p1212
tp1213
Rp1214
sbsg24
(lp1215
I68
aI75
asba(ipyboost.adtree
SplitterNode
p1216
(dp1217
g3
(lp1218
I76
aI83
asg5
I67
sg6
g7
(g11
S'\x91 \xf5_\xd74\xc7?'
p1219
tp1220
Rp1221
sg17
g7
(g11
S'f\xe2\xa8%\x98\xf7\xe4\xbf'
p1222
tp1223
Rp1224
sg18
(lp1225
g110
ag218
ag290
ag326
a(ipyboost.conditions
ThresholdCondition
p1226
(dp1227
g5
I5
sg40
I00
sg41
g332
sbasg20
g316
sg21
(ipyboost.conditions
ThresholdCondition
p1228
(dp1229
g5
I27
sg40
Nsg41
g7
(g11
S'\x00\x00\x00P\xb6\x1d\xf1?'
p1230
tp1231
Rp1232
sbsg24
(lp1233
I91
asba(ipyboost.adtree
SplitterNode
p1234
(dp1235
g3
(lp1236
I69
asg5
I68
sg6
g7
(g11
S'\xce\x1e`@r\xd9\xcb?'
p1237
tp1238
Rp1239
sg17
g7
(g11
S'\x8an\xdc\x81>\xba\x05\xc0'
p1240
tp1241
Rp1242
sg18
(lp1243
g36
ag200
ag1208
a(ipyboost.conditions
ThresholdCondition
p1244
(dp1245
g5
I0
sg40
I00
sg41
g1214
sbasg20
g1198
sg21
(ipyboost.conditions
ThresholdCondition
p1246
(dp1247
g5
I4
sg40
Nsg41
g7
(g11
S'\x00\x00\x00\xb0\xd9\xa8\xea?'
p1248
tp1249
Rp1250
sbsg24
(lp1251
sba(ipyboost.adtree
SplitterNode
p1252
(dp1253
g3
(lp1254
sg5
I69
sg6
g7
(g11
S'\xa0\xff\x8f\x99\x8a\xa1\x0b\xc0'
p1255
tp1256
Rp1257
sg17
g7
(g11
S'\xbd\\\x91\x05a\xd2\xcc?'
p1258
tp1259
Rp1260
sg18
(lp1261
g36
ag200
ag1208
ag1244
a(ipyboost.conditions
ThresholdCondition
p1262
(dp1263
g5
I4
sg40
I01
sg41
g1250
sbasg20
g1234
sg21
(ipyboost.conditions
ThresholdCondition
p1264
(dp1265
g5
I26
sg40
Nsg41
g7
(g11
S'\x00\x00\x00\xb0Mw\xed?'
p1266
tp1267
Rp1268
sbsg24
(lp1269
I163
aI195
asba(ipyboost.adtree
SplitterNode
p1270
(dp1271
g3
(lp1272
I115
asg5
I70
sg6
g7
(g11
S'M\xe2S\xf0i\x89\xee\xbf'
p1273
tp1274
Rp1275
sg17
g7
(g11
S'\xfd\x8ax1h\xb4\xee?'
p1276
tp1277
Rp1278
sg18
(lp1279
g36
ag92
ag686
ag704
ag1100
a(ipyboost.conditions
ThresholdCondition
p1280
(dp1281
g5
I18
sg40
I00
sg41
g1106
sbasg20
g1090
sg21
(ipyboost.conditions
ThresholdCondition
p1282
(dp1283
g5
I24
sg40
Nsg41
g7
(g11
S'\x00\x00\x00\xf0)\x82\xf4?'
p1284
tp1285
Rp1286
sbsg24
(lp1287
sba(ipyboost.adtree
SplitterNode
p1288
(dp1289
g3
(lp1290
I108
aI170
asg5
I71
sg6
g7
(g11
S'\xc2r\xf4\xab V\xf4?'
p1291
tp1292
Rp1293
sg17
g7
(g11
S'\xb2d\xbd_F\n\xd8\xbf'
p1294
tp1295
Rp1296
sg18
(lp1297
g110
ag218
ag1136
ag1190
a(ipyboost.conditions
ThresholdCondition
p1298
(dp1299
g5
I15
sg40
I00
sg41
g1196
sbasg20
g1180
sg21
(ipyboost.conditions
ThresholdCondition
p1300
(dp1301
g5
I6
sg40
Nsg41
g7
(g11
S'\x00\x00\x00\x00\xa0T\xda?'
p1302
tp1303
Rp1304
sbsg24
(lp1305
sba(ipyboost.adtree
SplitterNode
p1306
(dp1307
g3
(lp1308
I123
asg5
I72
sg6
g7
(g11
S'\xb3+p$\xb1h\xc1?'
p1309
tp1310
Rp1311
sg17
g7
(g11
S'\xbd\x8f"JZ\xb8\x01\xc0'
p1312
tp1313
Rp1314
sg18
(lp1315
g36
ag56
ag182
ag848
a(ipyboost.conditions
ThresholdCondition
p1316
(dp1317
g5
I9
sg40
I01
sg41
g854
sbasg20
g838
sg21
(ipyboost.conditions
ThresholdCondition
p1318
(dp1319
g5
I9
sg40
Nsg41
g7
(g11
S'\x00\x00\x00\xd0\x92\x9c\xf8?'
p1320
tp1321
Rp1322
sbsg24
(lp1323
I198
asba(ipyboost.adtree
SplitterNode
p1324
(dp1325
g3
(lp1326
I128
asg5
I73
sg6
g7
(g11
S'v\xab\xe4uk{\xed?'
p1327
tp1328
Rp1329
sg17
g7
(g11
S'\xcfIi\x16\x9f?\xf0\xbf'
p1330
tp1331
Rp1332
sg18
(lp1333
g36
ag200
ag1208
a(ipyboost.conditions
ThresholdCondition
p1334
(dp1335
g5
I0
sg40
I01
sg41
g1214
sbasg20
g1198
sg21
(ipyboost.conditions
ThresholdCondition
p1336
(dp1337
g5
I26
sg40
Nsg41
g7
(g11
S'\x00\x00\x00@\xf2\x86\xed?'
p1338
tp1339
Rp1340
sbsg24
(lp1341
I90
asba(ipyboost.adtree
SplitterNode
p1342
(dp1343
g3
(lp1344
I135
aI182
asg5
I74
sg6
g7
(g11
S'\x9b\x02\xce\x889\xe7\xd0?'
p1345
tp1346
Rp1347
sg17
g7
(g11
S'\t\x7f^/\xad\xa9\xe7\xbf'
p1348
tp1349
Rp1350
sg18
(lp1351
g110
ag218
ag236
ag866
a(ipyboost.conditions
ThresholdCondition
p1352
(dp1353
g5
I27
sg40
I00
sg41
g872
sbasg20
g856
sg21
(ipyboost.conditions
ThresholdCondition
p1354
(dp1355
g5
I0
sg40
Nsg41
g7
(g11
S'\x00\x00\x00\x10\xc5`\xef?'
p1356
tp1357
Rp1358
sbsg24
(lp1359
I79
asba(ipyboost.adtree
SplitterNode
p1360
(dp1361
g3
(lp1362
I175
asg5
I75
sg6
g7
(g11
S'*\xfd\xb6[\x97\xa1\xd8?'
p1363
tp1364
Rp1365
sg17
g7
(g11
S'\xa0\xff\x8f\x99\x8a\xa1\x0b\xc0'
p1366
tp1367
Rp1368
sg18
(lp1369
g36
ag200
ag1208
a(ipyboost.conditions
ThresholdCondition
p1370
(dp1371
g5
I0
sg40
I00
sg41
g1214
sbasg20
g1198
sg21
(ipyboost.conditions
ThresholdCondition
p1372
(dp1373
g5
I15
sg40
Nsg41
g7
(g11
S'\x00\x00\x00`\xd8"\xf2?'
p1374
tp1375
Rp1376
sbsg24
(lp1377
sba(ipyboost.adtree
SplitterNode
p1378
(dp1379
g3
(lp1380
sg5
I76
sg6
g7
(g11
S'*\xa6\xfd\xe6\xb1\xcd\xb8\xbf'
p1381
tp1382
Rp1383
sg17
g7
(g11
S's4l\x04D\xd1\xef?'
p1384
tp1385
Rp1386
sg18
(lp1387
g110
ag218
ag290
ag326
ag1226
a(ipyboost.conditions
ThresholdCondition
p1388
(dp1389
g5
I27
sg40
I01
sg41
g1232
sbasg20
g1216
sg21
(ipyboost.conditions
ThresholdCondition
p1390
(dp1391
g5
I5
sg40
Nsg41
g7
(g11
S'\x00\x00\x00 \x1ds\xf4?'
p1392
tp1393
Rp1394
sbsg24
(lp1395
I89
asba(ipyboost.adtree
SplitterNode
p1396
(dp1397
g3
(lp1398
sg5
I77
sg6
g7
(g11
S'\xa3\xf0\x03J?\x1c\xe3?'
p1399
tp1400
Rp1401
sg17
g7
(g11
S'0\x89\xab\xd4\xc9:\xd2\xbf'
p1402
tp1403
Rp1404
sg18
(lp1405
g36
ag92
ag686
ag704
ag1100
a(ipyboost.conditions
ThresholdCondition
p1406
(dp1407
g5
I18
sg40
I01
sg41
g1106
sbasg20
g1090
sg21
(ipyboost.conditions
ThresholdCondition
p1408
(dp1409
g5
I17
sg40
Nsg41
g7
(g11
S'\x00\x00\x00\x00\xac\xde\xe3?'
p1410
tp1411
Rp1412
sbsg24
(lp1413
I112
aI199
asba(ipyboost.adtree
SplitterNode
p1414
(dp1415
g3
(lp1416
sg5
I78
sg6
g7
(g11
S'\xa0\xff\x8f\x99\x8a\xa1\x0b\xc0'
p1417
tp1418
Rp1419
sg17
g7
(g11
S'\x19.\xca\xf0?\xa0\xc5?'
p1420
tp1421
Rp1422
sg18
(lp1423
g36
ag830
a(ipyboost.conditions
ThresholdCondition
p1424
(dp1425
g5
I18
sg40
I00
sg41
g836
sbasg20
g820
sg21
(ipyboost.conditions
ThresholdCondition
p1426
(dp1427
g5
I5
sg40
Nsg41
g7
(g11
S'\x00\x00\x00`\xe8\xea\xe3?'
p1428
tp1429
Rp1430
sbsg24
(lp1431
sba(ipyboost.adtree
SplitterNode
p1432
(dp1433
g3
(lp1434
sg5
I79
sg6
g7
(g11
S'7\x82\xca\x9dO\xeb\x0b\xc0'
p1435
tp1436
Rp1437
sg17
g7
(g11
S'I\xf9t\xaa\x0e\xbe\xc0?'
p1438
tp1439
Rp1440
sg18
(lp1441
g110
ag218
ag236
ag866
ag1352
a(ipyboost.conditions
ThresholdCondition
p1442
(dp1443
g5
I0
sg40
I00
sg41
g1358
sbasg20
g1342
sg21
(ipyboost.conditions
ThresholdCondition
p1444
(dp1445
g5
I24
sg40
Nsg41
g7
(g11
S'\x00\x00\x00\x80\xc9;\xf0?'
p1446
tp1447
Rp1448
sbsg24
(lp1449
I106
asba(ipyboost.adtree
SplitterNode
p1450
(dp1451
g3
(lp1452
sg5
I80
sg6
g7
(g11
S'\xce\xac:\x8d\x84\x96\xf6\xbf'
p1453
tp1454
Rp1455
sg17
g7
(g11
S'\x0cMk,f^\xf1?'
p1456
tp1457
Rp1458
sg18
(lp1459
g110
ag218
ag1136
ag1190
a(ipyboost.conditions
ThresholdCondition
p1460
(dp1461
g5
I15
sg40
I01
sg41
g1196
sbasg20
g1180
sg21
(ipyboost.conditions
ThresholdCondition
p1462
(dp1463
g5
I11
sg40
Nsg41
g7
(g11
S'\x00\x00\x00\xc0\xads\xc2?'
p1464
tp1465
Rp1466
sbsg24
(lp1467
sba(ipyboost.adtree
SplitterNode
p1468
(dp1469
g3
(lp1470
I102
asg5
I81
sg6
g7
(g11
S'\x9d\xc3\x19cZB\xe3\xbf'
p1471
tp1472
Rp1473
sg17
g7
(g11
S'\x16\x9aIA\x82\xc0\xf2?'
p1474
tp1475
Rp1476
sg18
(lp1477
g36
ag92
ag146
a(ipyboost.conditions
ThresholdCondition
p1478
(dp1479
g5
I25
sg40
I00
sg41
g152
sbasg20
g136
sg21
(ipyboost.conditions
ThresholdCondition
p1480
(dp1481
g5
I19
sg40
Nsg41
g7
(g11
S'\x00\x00\x00\x80\x1c\x0e\xf7?'
p1482
tp1483
Rp1484
sbsg24
(lp1485
sba(ipyboost.adtree
SplitterNode
p1486
(dp1487
g3
(lp1488
I119
asg5
I82
sg6
g7
(g11
S'\x17\xfc\xdc\xeb\x9ck\xee\xbf'
p1489
tp1490
Rp1491
sg17
g7
(g11
S'\xbf\xce\xfc\xa4\xdc\x85\xe0?'
p1492
tp1493
Rp1494
sg18
(lp1495
g36
ag56
ag308
ag542
a(ipyboost.conditions
ThresholdCondition
p1496
(dp1497
g5
I17
sg40
I01
sg41
g548
sbasg20
g532
sg21
(ipyboost.conditions
ThresholdCondition
p1498
(dp1499
g5
I21
sg40
Nsg41
g7
(g11
S'\x00\x00\x00P\xc3\xbb\xe5?'
p1500
tp1501
Rp1502
sbsg24
(lp1503
I122
asba(ipyboost.adtree
SplitterNode
p1504
(dp1505
g3
(lp1506
I84
asg5
I83
sg6
g7
(g11
S'\x9f\x84\xa8\xc8\x97\x84\xe6\xbf'
p1507
tp1508
Rp1509
sg17
g7
(g11
S'xbB\xce\x0c\x12\xcc?'
p1510
tp1511
Rp1512
sg18
(lp1513
g110
ag218
ag290
ag326
ag1226
a(ipyboost.conditions
ThresholdCondition
p1514
(dp1515
g5
I27
sg40
I01
sg41
g1232
sbasg20
g1216
sg21
(ipyboost.conditions
ThresholdCondition
p1516
(dp1517
g5
I3
sg40
Nsg41
g7
(g11
S'\x00\x00\x00\xa0\x89z\xda?'
p1518
tp1519
Rp1520
sbsg24
(lp1521
I101
asba(ipyboost.adtree
SplitterNode
p1522
(dp1523
g3
(lp1524
sg5
I84
sg6
g7
(g11
S'*\xf2\xdeHw\xde\xf3\xbf'
p1525
tp1526
Rp1527
sg17
g7
(g11
S'\x0f\x03\x90](\xa8\xf2?'
p1528
tp1529
Rp1530
sg18
(lp1531
g110
ag218
ag290
ag326
ag1226
ag1514
a(ipyboost.conditions
ThresholdCondition
p1532
(dp1533
g5
I3
sg40
I01
sg41
g1520
sbasg20
g1504
sg21
(ipyboost.conditions
ThresholdCondition
p1534
(dp1535
g5
I14
sg40
Nsg41
g7
(g11
S'\x00\x00\x00\x00s6\xce\xbf'
p1536
tp1537
Rp1538
sbsg24
(lp1539
sba(ipyboost.adtree
SplitterNode
p1540
(dp1541
g3
(lp1542
I159
asg5
I85
sg6
g7
(g11
S'8\x82Jf6\xde\xe7?'
p1543
tp1544
Rp1545
sg17
g7
(g11
S'\xbb\x1b\xdeK\xbe\x16\xd0\xbf'
p1546
tp1547
Rp1548
sg18
(lp1549
g36
ag92
ag146
ag938
a(ipyboost.conditions
ThresholdCondition
p1550
(dp1551
g5
I1
sg40
I01
sg41
g944
sbasg20
g928
sg21
(ipyboost.conditions
ThresholdCondition
p1552
(dp1553
g5
I24
sg40
Nsg41
g7
(g11
S'\x00\x00\x00@"0\xe6?'
p1554
tp1555
Rp1556
sbsg24
(lp1557
I113
asba(ipyboost.adtree
SplitterNode
p1558
(dp1559
g3
(lp1560
I88
aI98
asg5
I86
sg6
g7
(g11
S'dUl\xa9\xda\x9c\xd9\xbf'
p1561
tp1562
Rp1563
sg17
g7
(g11
S'\xc7@\xd8\x00\xde\xbb\xc5?'
p1564
tp1565
Rp1566
sg18
(lp1567
g36
ag56
ag308
a(ipyboost.conditions
ThresholdCondition
p1568
(dp1569
g5
I22
sg40
I00
sg41
g314
sbasg20
g298
sg21
(ipyboost.conditions
ThresholdCondition
p1570
(dp1571
g5
I23
sg40
Nsg41
g7
(g11
S'\x00\x00\x00\xc0\xec\x9a\xef?'
p1572
tp1573
Rp1574
sbsg24
(lp1575
I92
asba(ipyboost.adtree
SplitterNode
p1576
(dp1577
g3
(lp1578
sg5
I87
sg6
g7
(g11
S'J\xb0\xd08\xe9\x93\xfd?'
p1579
tp1580
Rp1581
sg17
g7
(g11
S'\x85\x1eQ\xac+a>\xbf'
p1582
tp1583
Rp1584
sg18
(lp1585
g36
ag56
ag74
a(ipyboost.conditions
ThresholdCondition
p1586
(dp1587
g5
I26
sg40
I00
sg41
g80
sbasg20
g64
sg21
(ipyboost.conditions
ThresholdCondition
p1588
(dp1589
g5
I25
sg40
Nsg41
g7
(g11
S'\x00\x00\x00\xd0\x14\xd9\xd4?'
p1590
tp1591
Rp1592
sbsg24
(lp1593
I103
asba(ipyboost.adtree
SplitterNode
p1594
(dp1595
g3
(lp1596
sg5
I88
sg6
g7
(g11
S'\x95]\xd8\x81\x8eT\xd4\xbf'
p1597
tp1598
Rp1599
sg17
g7
(g11
S'\x95\x1b]\x94\x816\x00@'
p1600
tp1601
Rp1602
sg18
(lp1603
g36
ag56
ag308
ag1568
a(ipyboost.conditions
ThresholdCondition
p1604
(dp1605
g5
I23
sg40
I01
sg41
g1574
sbasg20
g1558
sg21
(ipyboost.conditions
ThresholdCondition
p1606
(dp1607
g5
I9
sg40
Nsg41
g7
(g11
S'\x00\x00\x00\xc0\xa1\x8b\xf4?'
p1608
tp1609
Rp1610
sbsg24
(lp1611
sba(ipyboost.adtree
SplitterNode
p1612
(dp1613
g3
(lp1614
I162
asg5
I89
sg6
g7
(g11
S'\xb6\x93z\x11\xf2#\xe7\xbf'
p1615
tp1616
Rp1617
sg17
g7
(g11
S'\xb3\x19\xe2A>\xd7\x0f@'
p1618
tp1619
Rp1620
sg18
(lp1621
g110
ag218
ag290
ag326
ag1226
ag1388
a(ipyboost.conditions
ThresholdCondition
p1622
(dp1623
g5
I5
sg40
I00
sg41
g1394
sbasg20
g1378
sg21
(ipyboost.conditions
ThresholdCondition
p1624
(dp1625
g5
I1
sg40
Nsg41
g7
(g11
S'\x00\x00\x00p.\xa4\xd2\xbf'
p1626
tp1627
Rp1628
sbsg24
(lp1629
sba(ipyboost.adtree
SplitterNode
p1630
(dp1631
g3
(lp1632
sg5
I90
sg6
g7
(g11
S'\xadAkjB\xf4\x11@'
p1633
tp1634
Rp1635
sg17
g7
(g11
S'\xa8UJ\x8e-*\xf7\xbf'
p1636
tp1637
Rp1638
sg18
(lp1639
g36
ag200
ag1208
ag1334
a(ipyboost.conditions
ThresholdCondition
p1640
(dp1641
g5
I26
sg40
I00
sg41
g1340
sbasg20
g1324
sg21
(ipyboost.conditions
ThresholdCondition
p1642
(dp1643
g5
I11
sg40
Nsg41
g7
(g11
S'\x00\x00\x00\xb0\xdeY\xfa\xbf'
p1644
tp1645
Rp1646
sbsg24
(lp1647
I134
asba(ipyboost.adtree
SplitterNode
p1648
(dp1649
g3
(lp1650
I94
asg5
I91
sg6
g7
(g11
S'+\x10zP\x1aH\xe2\xbf'
p1651
tp1652
Rp1653
sg17
g7
(g11
S'\xa0\xff\x8f\x99\x8a\xa1\x0b@'
p1654
tp1655
Rp1656
sg18
(lp1657
g110
ag218
ag290
ag326
ag1226
a(ipyboost.conditions
ThresholdCondition
p1658
(dp1659
g5
I27
sg40
I00
sg41
g1232
sbasg20
g1216
sg21
(ipyboost.conditions
ThresholdCondition
p1660
(dp1661
g5
I13
sg40
Nsg41
g7
(g11
S'\x00\x00\x00@\xe9J\xfa?'
p1662
tp1663
Rp1664
sbsg24
(lp1665
sba(ipyboost.adtree
SplitterNode
p1666
(dp1667
g3
(lp1668
I109
asg5
I92
sg6
g7
(g11
S'\xc1f\x00\x14\xd9\xb3\xb3?'
p1669
tp1670
Rp1671
sg17
g7
(g11
S']A\xa9^\xba\xa9\x0b\xc0'
p1672
tp1673
Rp1674
sg18
(lp1675
g36
ag56
ag308
ag1568
a(ipyboost.conditions
ThresholdCondition
p1676
(dp1677
g5
I23
sg40
I00
sg41
g1574
sbasg20
g1558
sg21
(ipyboost.conditions
ThresholdCondition
p1678
(dp1679
g5
I14
sg40
Nsg41
g7
(g11
S'\x00\x00\x00\xc0\xd0[\xf9?'
p1680
tp1681
Rp1682
sbsg24
(lp1683
sba(ipyboost.adtree
SplitterNode
p1684
(dp1685
g3
(lp1686
I188
asg5
I93
sg6
g7
(g11
S'>\x81\x13\x1ba\x1e\x9f?'
p1687
tp1688
Rp1689
sg17
g7
(g11
S'g\xfd\x87\xe0nL\xfc?'
p1690
tp1691
Rp1692
sg18
(lp1693
g362
a(ipyboost.conditions
ThresholdCondition
p1694
(dp1695
g5
I17
sg40
I00
sg41
g368
sbasg20
g352
sg21
(ipyboost.conditions
ThresholdCondition
p1696
(dp1697
g5
I9
sg40
Nsg41
g7
(g11
S'\x00\x00\x00\xd0\xc7\x17\xf8?'
p1698
tp1699
Rp1700
sbsg24
(lp1701
sba(ipyboost.adtree
SplitterNode
p1702
(dp1703
g3
(lp1704
I124
asg5
I94
sg6
g7
(g11
S'\xf6Pt62\xe1\xf0\xbf'
p1705
tp1706
Rp1707
sg17
g7
(g11
S'\xdb\xbd\xa1\xfam\x8a\xef?'
p1708
tp1709
Rp1710
sg18
(lp1711
g110
ag218
ag290
ag326
ag1226
ag1658
a(ipyboost.conditions
ThresholdCondition
p1712
(dp1713
g5
I13
sg40
I01
sg41
g1664
sbasg20
g1648
sg21
(ipyboost.conditions
ThresholdCondition
p1714
(dp1715
g5
I14
sg40
Nsg41
g7
(g11
S'\x00\x00\x00PEU\xdb?'
p1716
tp1717
Rp1718
sbsg24
(lp1719
sba(ipyboost.adtree
SplitterNode
p1720
(dp1721
g3
(lp1722
sg5
I95
sg6
g7
(g11
S'b[6\xa9D;\x08@'
p1723
tp1724
Rp1725
sg17
g7
(g11
S'$+Q9\xd3\xcf\xec\xbf'
p1726
tp1727
Rp1728
sg18
(lp1729
g36
ag92
ag146
ag938
ag956
a(ipyboost.conditions
ThresholdCondition
p1730
(dp1731
g5
I3
sg40
I01
sg41
g962
sbasg20
g946
sg21
(ipyboost.conditions
ThresholdCondition
p1732
(dp1733
g5
I5
sg40
Nsg41
g7
(g11
S'\x00\x00\x00\xf0\xa1R\xea?'
p1734
tp1735
Rp1736
sbsg24
(lp1737
I158
asba(ipyboost.adtree
SplitterNode
p1738
(dp1739
g3
(lp1740
sg5
I96
sg6
g7
(g11
S'7rofH\xe3\xd5\xbf'
p1741
tp1742
Rp1743
sg17
g7
(g11
S'\x04\x1d\x01\x14\xca\x01\x14@'
p1744
tp1745
Rp1746
sg18
(lp1747
g36
ag56
ag182
ag758
a(ipyboost.conditions
ThresholdCondition
p1748
(dp1749
g5
I26
sg40
I01
sg41
g764
sbasg20
g748
sg21
(ipyboost.conditions
ThresholdCondition
p1750
(dp1751
g5
I19
sg40
Nsg41
g7
(g11
S'\x00\x00\x00\x10m\x97\xf0?'
p1752
tp1753
Rp1754
sbsg24
(lp1755
sba(ipyboost.adtree
SplitterNode
p1756
(dp1757
g3
(lp1758
I111
aI193
asg5
I97
sg6
g7
(g11
S'2\xe0?\n\xc0\xe4\xd2?'
p1759
tp1760
Rp1761
sg17
g7
(g11
S'T;\x11 \xd0E\x01\xc0'
p1762
tp1763
Rp1764
sg18
(lp1765
g36
ag56
ag182
a(ipyboost.conditions
ThresholdCondition
p1766
(dp1767
g5
I25
sg40
I01
sg41
g188
sbasg20
g172
sg21
(ipyboost.conditions
ThresholdCondition
p1768
(dp1769
g5
I4
sg40
Nsg41
g7
(g11
S'\x00\x00\x00 \xe5\xd7\xe0?'
p1770
tp1771
Rp1772
sbsg24
(lp1773
sba(ipyboost.adtree
SplitterNode
p1774
(dp1775
g3
(lp1776
I129
asg5
I98
sg6
g7
(g11
S'\xedLY:h\x1e\xfc\xbf'
p1777
tp1778
Rp1779
sg17
g7
(g11
S'\xe9\xc0\xa2\x96\x9a\xd0\xa6?'
p1780
tp1781
Rp1782
sg18
(lp1783
g36
ag56
ag308
ag1568
a(ipyboost.conditions
ThresholdCondition
p1784
(dp1785
g5
I23
sg40
I01
sg41
g1574
sbasg20
g1558
sg21
(ipyboost.conditions
ThresholdCondition
p1786
(dp1787
g5
I13
sg40
Nsg41
g7
(g11
S'\x00\x00\x00\xc0\xfcE\xe3?'
p1788
tp1789
Rp1790
sbsg24
(lp1791
I100
aI168
asba(ipyboost.adtree
SplitterNode
p1792
(dp1793
g3
(lp1794
sg5
I99
sg6
g7
(g11
S'B\xa7\x9a\x90_\x83\x9e\xbf'
p1795
tp1796
Rp1797
sg17
g7
(g11
S'\xa5T\x1c\nL\x99\xf0?'
p1798
tp1799
Rp1800
sg18
(lp1801
g36
ag92
ag146
ag938
ag956
a(ipyboost.conditions
ThresholdCondition
p1802
(dp1803
g5
I3
sg40
I00
sg41
g962
sbasg20
g946
sg21
(ipyboost.conditions
ThresholdCondition
p1804
(dp1805
g5
I25
sg40
Nsg41
g7
(g11
S'\x00\x00\x00\x80\xaa\xe4\xea?'
p1806
tp1807
Rp1808
sbsg24
(lp1809
sba(ipyboost.adtree
SplitterNode
p1810
(dp1811
g3
(lp1812
sg5
I100
sg6
g7
(g11
S'%\xe9\x8a\xccBQ\xe1?'
p1813
tp1814
Rp1815
sg17
g7
(g11
S'\x83\x10\x12%\x1ea\xea\xbf'
p1816
tp1817
Rp1818
sg18
(lp1819
g36
ag56
ag308
ag1568
ag1784
a(ipyboost.conditions
ThresholdCondition
p1820
(dp1821
g5
I13
sg40
I00
sg41
g1790
sbasg20
g1774
sg21
(ipyboost.conditions
ThresholdCondition
p1822
(dp1823
g5
I3
sg40
Nsg41
g7
(g11
S'\x00\x00\x000\xce_\xee?'
p1824
tp1825
Rp1826
sbsg24
(lp1827
I104
aI174
asba(ipyboost.adtree
SplitterNode
p1828
(dp1829
g3
(lp1830
sg5
I101
sg6
g7
(g11
S'V\xbf\xd3\xa7\xdf \xf0?'
p1831
tp1832
Rp1833
sg17
g7
(g11
S'\xb02\x8c>\x88p\xb1?'
p1834
tp1835
Rp1836
sg18
(lp1837
g110
ag218
ag290
ag326
ag1226
ag1514
a(ipyboost.conditions
ThresholdCondition
p1838
(dp1839
g5
I3
sg40
I00
sg41
g1520
sbasg20
g1504
sg21
(ipyboost.conditions
ThresholdCondition
p1840
(dp1841
g5
I10
sg40
Nsg41
g7
(g11
S'\x00\x00\x00`L\xb3\xe1\xbf'
p1842
tp1843
Rp1844
sbsg24
(lp1845
I157
asba(ipyboost.adtree
SplitterNode
p1846
(dp1847
g3
(lp1848
I117
aI167
asg5
I102
sg6
g7
(g11
S'K\xed\xd2\xb2\x7f\xba\xe7\xbf'
p1849
tp1850
Rp1851
sg17
g7
(g11
S'\xa0\xff\x8f\x99\x8a\xa1\x0b@'
p1852
tp1853
Rp1854
sg18
(lp1855
g36
ag92
ag146
ag1478
a(ipyboost.conditions
ThresholdCondition
p1856
(dp1857
g5
I19
sg40
I01
sg41
g1484
sbasg20
g1468
sg21
(ipyboost.conditions
ThresholdCondition
p1858
(dp1859
g5
I10
sg40
Nsg41
g7
(g11
S'\x00\x00\x00p\xda\xce\xfc?'
p1860
tp1861
Rp1862
sbsg24
(lp1863
sba(ipyboost.adtree
SplitterNode
p1864
(dp1865
g3
(lp1866
I144
asg5
I103
sg6
g7
(g11
S'\xa3e~-Y\x9d\xca?'
p1867
tp1868
Rp1869
sg17
g7
(g11
S'\x1d\xe5r\xc6\xc5\x1f\xde\xbf'
p1870
tp1871
Rp1872
sg18
(lp1873
g36
ag56
ag74
ag1586
a(ipyboost.conditions
ThresholdCondition
p1874
(dp1875
g5
I25
sg40
I00
sg41
g1592
sbasg20
g1576
sg21
(ipyboost.conditions
ThresholdCondition
p1876
(dp1877
g5
I19
sg40
Nsg41
g7
(g11
S'\x00\x00\x00\xf0P\xbd\xdf?'
p1878
tp1879
Rp1880
sbsg24
(lp1881
I138
asba(ipyboost.adtree
SplitterNode
p1882
(dp1883
g3
(lp1884
sg5
I104
sg6
g7
(g11
S'|\xd1\x1e\xcc\x12\xad\xee\xbf'
p1885
tp1886
Rp1887
sg17
g7
(g11
S'D\\\xceU\xd2/\x00@'
p1888
tp1889
Rp1890
sg18
(lp1891
g36
ag56
ag308
ag1568
ag1784
ag1820
a(ipyboost.conditions
ThresholdCondition
p1892
(dp1893
g5
I3
sg40
I00
sg41
g1826
sbasg20
g1810
sg21
(ipyboost.conditions
ThresholdCondition
p1894
(dp1895
g5
I19
sg40
Nsg41
g7
(g11
S'\x00\x00\x00\xe0\x185\xf2?'
p1896
tp1897
Rp1898
sbsg24
(lp1899
sba(ipyboost.adtree
SplitterNode
p1900
(dp1901
g3
(lp1902
sg5
I105
sg6
g7
(g11
S'\xb2\x80J\xda\x00\xed\xee?'
p1903
tp1904
Rp1905
sg17
g7
(g11
S"\xad\x13\x1f'(6\xed\xbf"
p1906
tp1907
Rp1908
sg18
(lp1909
g36
ag56
ag920
ag1064
ag1118
a(ipyboost.conditions
ThresholdCondition
p1910
(dp1911
g5
I19
sg40
I00
sg41
g1124
sbasg20
g1108
sg21
(ipyboost.conditions
ThresholdCondition
p1912
(dp1913
g5
I24
sg40
Nsg41
g7
(g11
S'\x00\x00\x00\xe05m\xf1?'
p1914
tp1915
Rp1916
sbsg24
(lp1917
sba(ipyboost.adtree
SplitterNode
p1918
(dp1919
g3
(lp1920
sg5
I106
sg6
g7
(g11
S'\x07U\xb9t>\xe4\x02@'
p1921
tp1922
Rp1923
sg17
g7
(g11
S'\xf6\x04\x8d\x16u\xa5\xe8\xbf'
p1924
tp1925
Rp1926
sg18
(lp1927
g110
ag218
ag236
ag866
ag1352
ag1442
a(ipyboost.conditions
ThresholdCondition
p1928
(dp1929
g5
I24
sg40
I00
sg41
g1448
sbasg20
g1432
sg21
(ipyboost.conditions
ThresholdCondition
p1930
(dp1931
g5
I17
sg40
Nsg41
g7
(g11
S'\x00\x00\x000\xa8\xe3\xe3?'
p1932
tp1933
Rp1934
sbsg24
(lp1935
sba(ipyboost.adtree
SplitterNode
p1936
(dp1937
g3
(lp1938
sg5
I107
sg6
g7
(g11
S'\xa0\xff\x8f\x99\x8a\xa1\x0b\xc0'
p1939
tp1940
Rp1941
sg17
g7
(g11
S'\xeaI\xa1\xd3H.\xb1?'
p1942
tp1943
Rp1944
sg18
(lp1945
g36
ag56
ag74
ag596
a(ipyboost.conditions
ThresholdCondition
p1946
(dp1947
g5
I23
sg40
I00
sg41
g602
sbasg20
g586
sg21
(ipyboost.conditions
ThresholdCondition
p1948
(dp1949
g5
I2
sg40
Nsg41
g7
(g11
S'\x00\x00\x00\x00`\x92\xf2\xbf'
p1950
tp1951
Rp1952
sbsg24
(lp1953
sba(ipyboost.adtree
SplitterNode
p1954
(dp1955
g3
(lp1956
sg5
I108
sg6
g7
(g11
S'\xda\xdeg.\x16\xc1\x07\xc0'
p1957
tp1958
Rp1959
sg17
g7
(g11
S'\x19\xcd\x9b\xf4\x16H\xf1?'
p1960
tp1961
Rp1962
sg18
(lp1963
g110
ag218
ag1136
ag1190
ag1298
a(ipyboost.conditions
ThresholdCondition
p1964
(dp1965
g5
I6
sg40
I01
sg41
g1304
sbasg20
g1288
sg21
(ipyboost.conditions
ThresholdCondition
p1966
(dp1967
g5
I24
sg40
Nsg41
g7
(g11
S'\x00\x00\x00\xd0(O\xe2?'
p1968
tp1969
Rp1970
sbsg24
(lp1971
sba(ipyboost.adtree
SplitterNode
p1972
(dp1973
g3
(lp1974
I126
aI132
asg5
I109
sg6
g7
(g11
S'\xfa\xef\xcd\x95^?\xc3?'
p1975
tp1976
Rp1977
sg17
g7
(g11
S'\x16`\xb3\x0f\\t\xe9\xbf'
p1978
tp1979
Rp1980
sg18
(lp1981
g36
ag56
ag308
ag1568
ag1676
a(ipyboost.conditions
ThresholdCondition
p1982
(dp1983
g5
I14
sg40
I01
sg41
g1682
sbasg20
g1666
sg21
(ipyboost.conditions
ThresholdCondition
p1984
(dp1985
g5
I21
sg40
Nsg41
g7
(g11
S'\x00\x00\x00\xc0u\xf9\xf1?'
p1986
tp1987
Rp1988
sbsg24
(lp1989
I155
asba(ipyboost.adtree
SplitterNode
p1990
(dp1991
g3
(lp1992
sg5
I110
sg6
g7
(g11
S'\x1bq\xb7\x02\xe3.\xb4\xbf'
p1993
tp1994
Rp1995
sg17
g7
(g11
S't*\x01-2A\xf8?'
p1996
tp1997
Rp1998
sg18
(lp1999
g362
ag1046
a(ipyboost.conditions
ThresholdCondition
p2000
(dp2001
g5
I21
sg40
I00
sg41
g1052
sbasg20
g1036
sg21
(ipyboost.conditions
ThresholdCondition
p2002
(dp2003
g5
I11
sg40
Nsg41
g7
(g11
S'\x00\x00\x00\x10\xcb\x83\xfa?'
p2004
tp2005
Rp2006
sbsg24
(lp2007
sba(ipyboost.adtree
SplitterNode
p2008
(dp2009
g3
(lp2010
sg5
I111
sg6
g7
(g11
S'.\x87\xf6\xf3\xc4I\xfb\xbf'
p2011
tp2012
Rp2013
sg17
g7
(g11
S';\xc0\x94G\x83-\xdf?'
p2014
tp2015
Rp2016
sg18
(lp2017
g36
ag56
ag182
ag1766
a(ipyboost.conditions
ThresholdCondition
p2018
(dp2019
g5
I4
sg40
I01
sg41
g1772
sbasg20
g1756
sg21
(ipyboost.conditions
ThresholdCondition
p2020
(dp2021
g5
I9
sg40
Nsg41
g7
(g11
S'\x00\x00\x00\xb0\x03\x81\xe3?'
p2022
tp2023
Rp2024
sbsg24
(lp2025
I125
aI154
asba(ipyboost.adtree
SplitterNode
p2026
(dp2027
g3
(lp2028
sg5
I112
sg6
g7
(g11
S'0\x9b\xbaG3\x90\xf4?'
p2029
tp2030
Rp2031
sg17
g7
(g11
S'#\xb0\x90\xf0\xee\x08\xc6\xbf'
p2032
tp2033
Rp2034
sg18
(lp2035
g36
ag92
ag686
ag704
ag1100
ag1406
a(ipyboost.conditions
ThresholdCondition
p2036
(dp2037
g5
I17
sg40
I00
sg41
g1412
sbasg20
g1396
sg21
(ipyboost.conditions
ThresholdCondition
p2038
(dp2039
g5
I0
sg40
Nsg41
g7
(g11
S'\x00\x00\x00\x10\x1d\xb4\xe1?'
p2040
tp2041
Rp2042
sbsg24
(lp2043
I197
asba(ipyboost.adtree
SplitterNode
p2044
(dp2045
g3
(lp2046
I141
asg5
I113
sg6
g7
(g11
S'\xe6\x8c\xd9B{\xd8\xe4\xbf'
p2047
tp2048
Rp2049
sg17
g7
(g11
S'4!\xfb\xaaAe\xbe?'
p2050
tp2051
Rp2052
sg18
(lp2053
g36
ag92
ag146
ag938
ag1550
a(ipyboost.conditions
ThresholdCondition
p2054
(dp2055
g5
I24
sg40
I00
sg41
g1556
sbasg20
g1540
sg21
(ipyboost.conditions
ThresholdCondition
p2056
(dp2057
g5
I0
sg40
Nsg41
g7
(g11
S'\x00\x00\x0002\x82\xe8?'
p2058
tp2059
Rp2060
sbsg24
(lp2061
I118
asba(ipyboost.adtree
SplitterNode
p2062
(dp2063
g3
(lp2064
sg5
I114
sg6
g7
(g11
S'\x1d\xc3\x00E;a\x11\xc0'
p2065
tp2066
Rp2067
sg17
g7
(g11
S';\xf5\xe1\x1c\x8f=\xc8?'
p2068
tp2069
Rp2070
sg18
(lp2071
g362
ag992
a(ipyboost.conditions
ThresholdCondition
p2072
(dp2073
g5
I17
sg40
I00
sg41
g998
sbasg20
g982
sg21
(ipyboost.conditions
ThresholdCondition
p2074
(dp2075
g5
I23
sg40
Nsg41
g7
(g11
S'\x00\x00\x00\x80\xa5H\xef?'
p2076
tp2077
Rp2078
sbsg24
(lp2079
sba(ipyboost.adtree
SplitterNode
p2080
(dp2081
g3
(lp2082
sg5
I115
sg6
g7
(g11
S'*E\xc10\xf1r\xd2\xbf'
p2083
tp2084
Rp2085
sg17
g7
(g11
S'\xa2\xb4(\xdc~S\x10\xc0'
p2086
tp2087
Rp2088
sg18
(lp2089
g36
ag92
ag686
ag704
ag1100
ag1280
a(ipyboost.conditions
ThresholdCondition
p2090
(dp2091
g5
I24
sg40
I01
sg41
g1286
sbasg20
g1270
sg21
(ipyboost.conditions
ThresholdCondition
p2092
(dp2093
g5
I0
sg40
Nsg41
g7
(g11
S'\x00\x00\x00`\xe7T\xf2?'
p2094
tp2095
Rp2096
sbsg24
(lp2097
sba(ipyboost.adtree
SplitterNode
p2098
(dp2099
g3
(lp2100
sg5
I116
sg6
g7
(g11
S'\xbf\x85+^\x9e\x8f\xc1?'
p2101
tp2102
Rp2103
sg17
g7
(g11
S"'\xf2\xceqD\x0c\xec\xbf"
p2104
tp2105
Rp2106
sg18
(lp2107
g362
a(ipyboost.conditions
ThresholdCondition
p2108
(dp2109
g5
I17
sg40
I01
sg41
g368
sbasg20
g352
sg21
(ipyboost.conditions
ThresholdCondition
p2110
(dp2111
g5
I17
sg40
Nsg41
g7
(g11
S'\x00\x00\x00\xd0`N\xf2?'
p2112
tp2113
Rp2114
sbsg24
(lp2115
I166
asba(ipyboost.adtree
SplitterNode
p2116
(dp2117
g3
(lp2118
sg5
I117
sg6
g7
(g11
S'\xb6o\xcb-\x8b\\\xce?'
p2119
tp2120
Rp2121
sg17
g7
(g11
S'\xe4\xd1\xc5vU8\xf9\xbf'
p2122
tp2123
Rp2124
sg18
(lp2125
g36
ag92
ag146
ag1478
ag1856
a(ipyboost.conditions
ThresholdCondition
p2126
(dp2127
g5
I10
sg40
I01
sg41
g1862
sbasg20
g1846
sg21
(ipyboost.conditions
ThresholdCondition
p2128
(dp2129
g5
I7
sg40
Nsg41
g7
(g11
S'\x00\x00\x00\xa0\xba\x84\xcc\xbf'
p2130
tp2131
Rp2132
sbsg24
(lp2133
sba(ipyboost.adtree
SplitterNode
p2134
(dp2135
g3
(lp2136
I121
asg5
I118
sg6
g7
(g11
S'z\x15IO\x8ex\xcc?'
p2137
tp2138
Rp2139
sg17
g7
(g11
S'\xa0\xff\x8f\x99\x8a\xa1\x0b\xc0'
p2140
tp2141
Rp2142
sg18
(lp2143
g36
ag92
ag146
ag938
ag1550
ag2054
a(ipyboost.conditions
ThresholdCondition
p2144
(dp2145
g5
I0
sg40
I00
sg41
g2060
sbasg20
g2044
sg21
(ipyboost.conditions
ThresholdCondition
p2146
(dp2147
g5
I6
sg40
Nsg41
g7
(g11
S'\x00\x00\x00\x10\x8a\xe8\xef?'
p2148
tp2149
Rp2150
sbsg24
(lp2151
sba(ipyboost.adtree
SplitterNode
p2152
(dp2153
g3
(lp2154
I178
asg5
I119
sg6
g7
(g11
S'\x18/\xf4+\xc7\x05\xf4\xbf'
p2155
tp2156
Rp2157
sg17
g7
(g11
S'\xbf\xb4\xf7g\xa3\x1b\x11@'
p2158
tp2159
Rp2160
sg18
(lp2161
g36
ag56
ag308
ag542
ag1496
a(ipyboost.conditions
ThresholdCondition
p2162
(dp2163
g5
I21
sg40
I01
sg41
g1502
sbasg20
g1486
sg21
(ipyboost.conditions
ThresholdCondition
p2164
(dp2165
g5
I9
sg40
Nsg41
g7
(g11
S'\x00\x00\x00\x00u\xaf\xef?'
p2166
tp2167
Rp2168
sbsg24
(lp2169
sba(ipyboost.adtree
SplitterNode
p2170
(dp2171
g3
(lp2172
sg5
I120
sg6
g7
(g11
S'U\xef\xcf\xce\xec\x98\xe8?'
p2173
tp2174
Rp2175
sg17
g7
(g11
S'wv\xac\xee\to\x0f\xc0'
p2176
tp2177
Rp2178
sg18
(lp2179
g36
ag56
ag74
ag596
ag632
ag974
a(ipyboost.conditions
ThresholdCondition
p2180
(dp2181
g5
I10
sg40
I01
sg41
g980
sbasg20
g964
sg21
(ipyboost.conditions
ThresholdCondition
p2182
(dp2183
g5
I4
sg40
Nsg41
g7
(g11
S'\x00\x00\x00\xf0\xb1?\xf3?'
p2184
tp2185
Rp2186
sbsg24
(lp2187
sba(ipyboost.adtree
SplitterNode
p2188
(dp2189
g3
(lp2190
sg5
I121
sg6
g7
(g11
S'\x0f\x0bi\xab ;\xdc\xbf'
p2191
tp2192
Rp2193
sg17
g7
(g11
S'\x9b\xb2\xe7\xbc|\x9a\xf4?'
p2194
tp2195
Rp2196
sg18
(lp2197
g36
ag92
ag146
ag938
ag1550
ag2054
ag2144
a(ipyboost.conditions
ThresholdCondition
p2198
(dp2199
g5
I6
sg40
I01
sg41
g2150
sbasg20
g2134
sg21
(ipyboost.conditions
ThresholdCondition
p2200
(dp2201
g5
I25
sg40
Nsg41
g7
(g11
S'\x00\x00\x00\xc0Fa\xea?'
p2202
tp2203
Rp2204
sbsg24
(lp2205
I137
asba(ipyboost.adtree
SplitterNode
p2206
(dp2207
g3
(lp2208
sg5
I122
sg6
g7
(g11
S"l\xbeC8'o\xf7\xbf"
p2209
tp2210
Rp2211
sg17
g7
(g11
S'8\xdc67\r\xc4\xea?'
p2212
tp2213
Rp2214
sg18
(lp2215
g36
ag56
ag308
ag542
ag1496
a(ipyboost.conditions
ThresholdCondition
p2216
(dp2217
g5
I21
sg40
I00
sg41
g1502
sbasg20
g1486
sg21
(ipyboost.conditions
ThresholdCondition
p2218
(dp2219
g5
I3
sg40
Nsg41
g7
(g11
S'\x00\x00\x00\xa0.\xb3\xdb?'
p2220
tp2221
Rp2222
sbsg24
(lp2223
I156
asba(ipyboost.adtree
SplitterNode
p2224
(dp2225
g3
(lp2226
sg5
I123
sg6
g7
(g11
S'\xa0\xff\x8f\x99\x8a\xa1\x0b\xc0'
p2227
tp2228
Rp2229
sg17
g7
(g11
S'%\xe4\xb0\r_\x82\xcb?'
p2230
tp2231
Rp2232
sg18
(lp2233
g36
ag56
ag182
ag848
ag1316
a(ipyboost.conditions
ThresholdCondition
p2234
(dp2235
g5
I9
sg40
I01
sg41
g1322
sbasg20
g1306
sg21
(ipyboost.conditions
ThresholdCondition
p2236
(dp2237
g5
I4
sg40
Nsg41
g7
(g11
S'\x00\x00\x00\x80wf\xfb\xbf'
p2238
tp2239
Rp2240
sbsg24
(lp2241
I169
asba(ipyboost.adtree
SplitterNode
p2242
(dp2243
g3
(lp2244
I184
asg5
I124
sg6
g7
(g11
S'=G\x13\xf3,\xf7\x02\xc0'
p2245
tp2246
Rp2247
sg17
g7
(g11
S'\xe0$<\x80\xe6^\xf0?'
p2248
tp2249
Rp2250
sg18
(lp2251
g110
ag218
ag290
ag326
ag1226
ag1658
ag1712
a(ipyboost.conditions
ThresholdCondition
p2252
(dp2253
g5
I14
sg40
I01
sg41
g1718
sbasg20
g1702
sg21
(ipyboost.conditions
ThresholdCondition
p2254
(dp2255
g5
I18
sg40
Nsg41
g7
(g11
S'\x00\x00\x00\xa0\xb7\xca\xc9?'
p2256
tp2257
Rp2258
sbsg24
(lp2259
sba(ipyboost.adtree
SplitterNode
p2260
(dp2261
g3
(lp2262
sg5
I125
sg6
g7
(g11
S'\x90\xb6\xa1\xd1\xa3\xbd\x01@'
p2263
tp2264
Rp2265
sg17
g7
(g11
S'\x1e`T\xa4\xce\xec\xe1\xbf'
p2266
tp2267
Rp2268
sg18
(lp2269
g36
ag56
ag182
ag1766
ag2018
a(ipyboost.conditions
ThresholdCondition
p2270
(dp2271
g5
I9
sg40
I00
sg41
g2024
sbasg20
g2008
sg21
(ipyboost.conditions
ThresholdCondition
p2272
(dp2273
g5
I13
sg40
Nsg41
g7
(g11
S'\x00\x00\x00\xa0qv\xe6?'
p2274
tp2275
Rp2276
sbsg24
(lp2277
sba(ipyboost.adtree
SplitterNode
p2278
(dp2279
g3
(lp2280
I139
aI185
asg5
I126
sg6
g7
(g11
S'\xaeW\xed\xde\xf2\xc2\xbd\xbf'
p2281
tp2282
Rp2283
sg17
g7
(g11
S'\xf9T{\x01L\xb4\xe6?'
p2284
tp2285
Rp2286
sg18
(lp2287
g36
ag56
ag308
ag1568
ag1676
ag1982
a(ipyboost.conditions
ThresholdCondition
p2288
(dp2289
g5
I21
sg40
I01
sg41
g1988
sbasg20
g1972
sg21
(ipyboost.conditions
ThresholdCondition
p2290
(dp2291
g5
I6
sg40
Nsg41
g7
(g11
S'\x00\x00\x00\xe0Z\x8e\xd8?'
p2292
tp2293
Rp2294
sbsg24
(lp2295
I149
asba(ipyboost.adtree
SplitterNode
p2296
(dp2297
g3
(lp2298
sg5
I127
sg6
g7
(g11
S'm\xe8\xdasZ,\xd7\xbf'
p2299
tp2300
Rp2301
sg17
g7
(g11
S'\x13\xe7\xd1q\xc7k\r\xc0'
p2302
tp2303
Rp2304
sg18
(lp2305
g36
ag56
ag452
ag488
a(ipyboost.conditions
ThresholdCondition
p2306
(dp2307
g5
I27
sg40
I01
sg41
g494
sbasg20
g478
sg21
(ipyboost.conditions
ThresholdCondition
p2308
(dp2309
g5
I20
sg40
Nsg41
g7
(g11
S'\x00\x00\x00 \xd1\xd0\xe8?'
p2310
tp2311
Rp2312
sbsg24
(lp2313
sba(ipyboost.adtree
SplitterNode
p2314
(dp2315
g3
(lp2316
sg5
I128
sg6
g7
(g11
S')\xb9\x06\xd8\xe8u\x15@'
p2317
tp2318
Rp2319
sg17
g7
(g11
S'\xf2\x9c\xd9\xa7I\x1e\x01\xc0'
p2320
tp2321
Rp2322
sg18
(lp2323
g36
ag200
ag1208
ag1334
a(ipyboost.conditions
ThresholdCondition
p2324
(dp2325
g5
I26
sg40
I01
sg41
g1340
sbasg20
g1324
sg21
(ipyboost.conditions
ThresholdCondition
p2326
(dp2327
g5
I14
sg40
Nsg41
g7
(g11
S'\x00\x00\x00\xb0\xf7\x9d\xe4\xbf'
p2328
tp2329
Rp2330
sbsg24
(lp2331
sba(ipyboost.adtree
SplitterNode
p2332
(dp2333
g3
(lp2334
sg5
I129
sg6
g7
(g11
S'S&\x034{\x86\xda?'
p2335
tp2336
Rp2337
sg17
g7
(g11
S'\x10\xddA/\x92#\x12\xc0'
p2338
tp2339
Rp2340
sg18
(lp2341
g36
ag56
ag308
ag1568
ag1784
a(ipyboost.conditions
ThresholdCondition
p2342
(dp2343
g5
I13
sg40
I01
sg41
g1790
sbasg20
g1774
sg21
(ipyboost.conditions
ThresholdCondition
p2344
(dp2345
g5
I7
sg40
Nsg41
g7
(g11
S'\x00\x00\x000uy\xe2\xbf'
p2346
tp2347
Rp2348
sbsg24
(lp2349
sba(ipyboost.adtree
SplitterNode
p2350
(dp2351
g3
(lp2352
sg5
I130
sg6
g7
(g11
S'\t1\xd36c(\xb1\xbf'
p2353
tp2354
Rp2355
sg17
g7
(g11
S'U\x05\xba\xe9j\x7f\xf1?'
p2356
tp2357
Rp2358
sg18
(lp2359
g36
ag92
ag146
ag938
ag956
a(ipyboost.conditions
ThresholdCondition
p2360
(dp2361
g5
I3
sg40
I00
sg41
g962
sbasg20
g946
sg21
(ipyboost.conditions
ThresholdCondition
p2362
(dp2363
g5
I26
sg40
Nsg41
g7
(g11
S'\x00\x00\x00\x10gr\xeb?'
p2364
tp2365
Rp2366
sbsg24
(lp2367
I131
asba(ipyboost.adtree
SplitterNode
p2368
(dp2369
g3
(lp2370
sg5
I131
sg6
g7
(g11
S'\x93\xcaN\xab&A\x00\xc0'
p2371
tp2372
Rp2373
sg17
g7
(g11
S'\x8b\x8d\x9f\xfdRP\x00@'
p2374
tp2375
Rp2376
sg18
(lp2377
g36
ag92
ag146
ag938
ag956
ag2360
a(ipyboost.conditions
ThresholdCondition
p2378
(dp2379
g5
I26
sg40
I00
sg41
g2366
sbasg20
g2350
sg21
(ipyboost.conditions
ThresholdCondition
p2380
(dp2381
g5
I4
sg40
Nsg41
g7
(g11
S'\x00\x00\x00P7\x95\xf1\xbf'
p2382
tp2383
Rp2384
sbsg24
(lp2385
I177
asba(ipyboost.adtree
SplitterNode
p2386
(dp2387
g3
(lp2388
I172
asg5
I132
sg6
g7
(g11
S'\xbe\xc5c\xe9\xad\x9e\xd3?'
p2389
tp2390
Rp2391
sg17
g7
(g11
S'\x8d\xce\xeb\x19\x8b\x91\xe3\xbf'
p2392
tp2393
Rp2394
sg18
(lp2395
g36
ag56
ag308
ag1568
ag1676
ag1982
a(ipyboost.conditions
ThresholdCondition
p2396
(dp2397
g5
I21
sg40
I01
sg41
g1988
sbasg20
g1972
sg21
(ipyboost.conditions
ThresholdCondition
p2398
(dp2399
g5
I13
sg40
Nsg41
g7
(g11
S'\x00\x00\x00 \x93O\xee?'
p2400
tp2401
Rp2402
sbsg24
(lp2403
I148
asba(ipyboost.adtree
SplitterNode
p2404
(dp2405
g3
(lp2406
sg5
I133
sg6
g7
(g11
S'\x90\xac\xb4\x01r]\xe6\xbf'
p2407
tp2408
Rp2409
sg17
g7
(g11
S'\xa7`.\xe9\x1bc\xdb?'
p2410
tp2411
Rp2412
sg18
(lp2413
g362
ag992
a(ipyboost.conditions
ThresholdCondition
p2414
(dp2415
g5
I17
sg40
I00
sg41
g998
sbasg20
g982
sg21
(ipyboost.conditions
ThresholdCondition
p2416
(dp2417
g5
I13
sg40
Nsg41
g7
(g11
S'\x00\x00\x00\xb0\x1d\xe6\xe8?'
p2418
tp2419
Rp2420
sbsg24
(lp2421
sba(ipyboost.adtree
SplitterNode
p2422
(dp2423
g3
(lp2424
sg5
I134
sg6
g7
(g11
S'=\x8e\x11\x01\xc33\x02@'
p2425
tp2426
Rp2427
sg17
g7
(g11
S'\x99\x8c\x1b\xe1\xdbV\r\xc0'
p2428
tp2429
Rp2430
sg18
(lp2431
g36
ag200
ag1208
ag1334
ag1640
a(ipyboost.conditions
ThresholdCondition
p2432
(dp2433
g5
I11
sg40
I00
sg41
g1646
sbasg20
g1630
sg21
(ipyboost.conditions
ThresholdCondition
p2434
(dp2435
g5
I10
sg40
Nsg41
g7
(g11
S'\x00\x00\x00\x10\xf2\x86\xf6\xbf'
p2436
tp2437
Rp2438
sbsg24
(lp2439
sba(ipyboost.adtree
SplitterNode
p2440
(dp2441
g3
(lp2442
sg5
I135
sg6
g7
(g11
S'A\xa9\xea\xdc\t\x1c\x04@'
p2443
tp2444
Rp2445
sg17
g7
(g11
S'\x0c\x98\x11&\xda\xa5\xde\xbf'
p2446
tp2447
Rp2448
sg18
(lp2449
g110
ag218
ag236
ag866
ag1352
a(ipyboost.conditions
ThresholdCondition
p2450
(dp2451
g5
I0
sg40
I01
sg41
g1358
sbasg20
g1342
sg21
(ipyboost.conditions
ThresholdCondition
p2452
(dp2453
g5
I11
sg40
Nsg41
g7
(g11
S'\x00\x00\x00\xb0!\x95\xec\xbf'
p2454
tp2455
Rp2456
sbsg24
(lp2457
I146
asba(ipyboost.adtree
SplitterNode
p2458
(dp2459
g3
(lp2460
sg5
I136
sg6
g7
(g11
S'\xdf\xb5\xdf.\x8d\xd9\xee?'
p2461
tp2462
Rp2463
sg17
g7
(g11
S'\x81\xda\xd5\x0c5\xad\t\xc0'
p2464
tp2465
Rp2466
sg18
(lp2467
g36
ag92
ag686
a(ipyboost.conditions
ThresholdCondition
p2468
(dp2469
g5
I2
sg40
I00
sg41
g692
sbasg20
g676
sg21
(ipyboost.conditions
ThresholdCondition
p2470
(dp2471
g5
I6
sg40
Nsg41
g7
(g11
S'\x00\x00\x00\xb0\x8b\xf7\xe9?'
p2472
tp2473
Rp2474
sbsg24
(lp2475
sba(ipyboost.adtree
SplitterNode
p2476
(dp2477
g3
(lp2478
sg5
I137
sg6
g7
(g11
S'11\xe0\xae\x84"\xf1\xbf'
p2479
tp2480
Rp2481
sg17
g7
(g11
S'3\xec\xd6!\xa1}\x12@'
p2482
tp2483
Rp2484
sg18
(lp2485
g36
ag92
ag146
ag938
ag1550
ag2054
ag2144
ag2198
a(ipyboost.conditions
ThresholdCondition
p2486
(dp2487
g5
I25
sg40
I00
sg41
g2204
sbasg20
g2188
sg21
(ipyboost.conditions
ThresholdCondition
p2488
(dp2489
g5
I5
sg40
Nsg41
g7
(g11
S'\x00\x00\x00\x10|>\xe5?'
p2490
tp2491
Rp2492
sbsg24
(lp2493
sba(ipyboost.adtree
SplitterNode
p2494
(dp2495
g3
(lp2496
sg5
I138
sg6
g7
(g11
S'\xa0\xff\x8f\x99\x8a\xa1\x0b\xc0'
p2497
tp2498
Rp2499
sg17
g7
(g11
S'i\x03\x1e\x84k\xde\xc4\xbf'
p2500
tp2501
Rp2502
sg18
(lp2503
g36
ag56
ag74
ag1586
ag1874
a(ipyboost.conditions
ThresholdCondition
p2504
(dp2505
g5
I19
sg40
I00
sg41
g1880
sbasg20
g1864
sg21
(ipyboost.conditions
ThresholdCondition
p2506
(dp2507
g5
I25
sg40
Nsg41
g7
(g11
S'\x00\x00\x00\xb8\x14)\xe0?'
p2508
tp2509
Rp2510
sbsg24
(lp2511
sba(ipyboost.adtree
SplitterNode
p2512
(dp2513
g3
(lp2514
sg5
I139
sg6
g7
(g11
S'2\xbf\x17\xe6\x02V\xd4?'
p2515
tp2516
Rp2517
sg17
g7
(g11
S'*\x0ep_\xce\x8c\xf5\xbf'
p2518
tp2519
Rp2520
sg18
(lp2521
g36
ag56
ag308
ag1568
ag1676
ag1982
ag2288
a(ipyboost.conditions
ThresholdCondition
p2522
(dp2523
g5
I6
sg40
I01
sg41
g2294
sbasg20
g2278
sg21
(ipyboost.conditions
ThresholdCondition
p2524
(dp2525
g5
I6
sg40
Nsg41
g7
(g11
S'\x00\x00\x00\xf0Ze\xc3\xbf'
p2526
tp2527
Rp2528
sbsg24
(lp2529
sba(ipyboost.adtree
SplitterNode
p2530
(dp2531
g3
(lp2532
sg5
I140
sg6
g7
(g11
S'h\xe4D_\xa1\x1c\xe0?'
p2533
tp2534
Rp2535
sg17
g7
(g11
S'\xd2\xf8?\x89\xc1c\xcc\xbf'
p2536
tp2537
Rp2538
sg18
(lp2539
g110
ag218
ag290
a(ipyboost.conditions
ThresholdCondition
p2540
(dp2541
g5
I26
sg40
I01
sg41
g296
sbasg20
g280
sg21
(ipyboost.conditions
ThresholdCondition
p2542
(dp2543
g5
I27
sg40
Nsg41
g7
(g11
S'\x00\x00\x00\x00\xbd\\\xe7?'
p2544
tp2545
Rp2546
sbsg24
(lp2547
sba(ipyboost.adtree
SplitterNode
p2548
(dp2549
g3
(lp2550
I164
asg5
I141
sg6
g7
(g11
S'U\xf7\xb0\xaf\xbd\x92\xf5\xbf'
p2551
tp2552
Rp2553
sg17
g7
(g11
S"\xe2\x94\xc9A'B\xcd?"
p2554
tp2555
Rp2556
sg18
(lp2557
g36
ag92
ag146
ag938
ag1550
ag2054
a(ipyboost.conditions
ThresholdCondition
p2558
(dp2559
g5
I0
sg40
I01
sg41
g2060
sbasg20
g2044
sg21
(ipyboost.conditions
ThresholdCondition
p2560
(dp2561
g5
I27
sg40
Nsg41
g7
(g11
S'\x00\x00\x00\xa0\x11\xf1\xe7?'
p2562
tp2563
Rp2564
sbsg24
(lp2565
I142
asba(ipyboost.adtree
SplitterNode
p2566
(dp2567
g3
(lp2568
sg5
I142
sg6
g7
(g11
S'\x04\xb9\x1f\xdd\xcb\xd4\xdb\xbf'
p2569
tp2570
Rp2571
sg17
g7
(g11
S'\xf5\xfb\x0e\xc9\xfc\xef\x0c@'
p2572
tp2573
Rp2574
sg18
(lp2575
g36
ag92
ag146
ag938
ag1550
ag2054
ag2558
a(ipyboost.conditions
ThresholdCondition
p2576
(dp2577
g5
I27
sg40
I00
sg41
g2564
sbasg20
g2548
sg21
(ipyboost.conditions
ThresholdCondition
p2578
(dp2579
g5
I5
sg40
Nsg41
g7
(g11
S'\x00\x00\x00P\t\x9e\xee?'
p2580
tp2581
Rp2582
sbsg24
(lp2583
sba(ipyboost.adtree
SplitterNode
p2584
(dp2585
g3
(lp2586
sg5
I143
sg6
g7
(g11
S'\x9dcW\xbe;\x17\x06\xc0'
p2587
tp2588
Rp2589
sg17
g7
(g11
S'\xf5\xc7O\xe2\\\x15\xea?'
p2590
tp2591
Rp2592
sg18
(lp2593
g362
ag794
a(ipyboost.conditions
ThresholdCondition
p2594
(dp2595
g5
I13
sg40
I00
sg41
g800
sbasg20
g784
sg21
(ipyboost.conditions
ThresholdCondition
p2596
(dp2597
g5
I19
sg40
Nsg41
g7
(g11
S'\x00\x00\x00 |"\xc7?'
p2598
tp2599
Rp2600
sbsg24
(lp2601
sba(ipyboost.adtree
SplitterNode
p2602
(dp2603
g3
(lp2604
sg5
I144
sg6
g7
(g11
S'__ckr\x9f\xa0?'
p2605
tp2606
Rp2607
sg17
g7
(g11
S'\xaf\xdd\x1c\xb9\xac\xdf\xf8?'
p2608
tp2609
Rp2610
sg18
(lp2611
g36
ag56
ag74
ag1586
ag1874
a(ipyboost.conditions
ThresholdCondition
p2612
(dp2613
g5
I19
sg40
I01
sg41
g1880
sbasg20
g1864
sg21
(ipyboost.conditions
ThresholdCondition
p2614
(dp2615
g5
I2
sg40
Nsg41
g7
(g11
S'\x00\x00\x00\xe0~\xbb\xf0?'
p2616
tp2617
Rp2618
sbsg24
(lp2619
sba(ipyboost.adtree
SplitterNode
p2620
(dp2621
g3
(lp2622
sg5
I145
sg6
g7
(g11
S'A\xaa\x07?$\xfa\xea?'
p2623
tp2624
Rp2625
sg17
g7
(g11
S'\xc85\x83\xa6~:\xf5\xbf'
p2626
tp2627
Rp2628
sg18
(lp2629
g36
ag200
ag416
a(ipyboost.conditions
ThresholdCondition
p2630
(dp2631
g5
I19
sg40
I00
sg41
g422
sbasg20
g406
sg21
(ipyboost.conditions
ThresholdCondition
p2632
(dp2633
g5
I0
sg40
Nsg41
g7
(g11
S'\x00\x00\x00\xf0gP\xf2?'
p2634
tp2635
Rp2636
sbsg24
(lp2637
sba(ipyboost.adtree
SplitterNode
p2638
(dp2639
g3
(lp2640
sg5
I146
sg6
g7
(g11
S'\xa6\xec|\xb02M\xfe?'
p2641
tp2642
Rp2643
sg17
g7
(g11
S'#\xdd\xae\xe5\xc4\xe5\xe8\xbf'
p2644
tp2645
Rp2646
sg18
(lp2647
g110
ag218
ag236
ag866
ag1352
ag2450
a(ipyboost.conditions
ThresholdCondition
p2648
(dp2649
g5
I11
sg40
I00
sg41
g2456
sbasg20
g2440
sg21
(ipyboost.conditions
ThresholdCondition
p2650
(dp2651
g5
I25
sg40
Nsg41
g7
(g11
S'\x00\x00\x000\xdb\xe8\xef?'
p2652
tp2653
Rp2654
sbsg24
(lp2655
I194
asba(ipyboost.adtree
SplitterNode
p2656
(dp2657
g3
(lp2658
sg5
I147
sg6
g7
(g11
S'\x06\xcd]G\x05K\x1b@'
p2659
tp2660
Rp2661
sg17
g7
(g11
S'M\x83\xcf\x10\xccB\x03\xc0'
p2662
tp2663
Rp2664
sg18
(lp2665
g36
ag56
ag182
ag254
ag272
a(ipyboost.conditions
ThresholdCondition
p2666
(dp2667
g5
I1
sg40
I01
sg41
g278
sbasg20
g262
sg21
(ipyboost.conditions
ThresholdCondition
p2668
(dp2669
g5
I21
sg40
Nsg41
g7
(g11
S'\x00\x00\x00\x900\xb0\xed?'
p2670
tp2671
Rp2672
sbsg24
(lp2673
sba(ipyboost.adtree
SplitterNode
p2674
(dp2675
g3
(lp2676
sg5
I148
sg6
g7
(g11
S'R\x05\x97[\xea\x86\xd1?'
p2677
tp2678
Rp2679
sg17
g7
(g11
S'!0\x9f-\x19\x1c\xf6\xbf'
p2680
tp2681
Rp2682
sg18
(lp2683
g36
ag56
ag308
ag1568
ag1676
ag1982
ag2396
a(ipyboost.conditions
ThresholdCondition
p2684
(dp2685
g5
I13
sg40
I00
sg41
g2402
sbasg20
g2386
sg21
(ipyboost.conditions
ThresholdCondition
p2686
(dp2687
g5
I18
sg40
Nsg41
g7
(g11
S'\x00\x00\x00\x901\xa0\xd2?'
p2688
tp2689
Rp2690
sbsg24
(lp2691
I186
asba(ipyboost.adtree
SplitterNode
p2692
(dp2693
g3
(lp2694
sg5
I149
sg6
g7
(g11
S'D\xdd\x13\x15v\xdf\x05\xc0'
p2695
tp2696
Rp2697
sg17
g7
(g11
S'\xb8kn\x9c\xe4Q\xe3?'
p2698
tp2699
Rp2700
sg18
(lp2701
g36
ag56
ag308
ag1568
ag1676
ag1982
ag2288
a(ipyboost.conditions
ThresholdCondition
p2702
(dp2703
g5
I6
sg40
I00
sg41
g2294
sbasg20
g2278
sg21
(ipyboost.conditions
ThresholdCondition
p2704
(dp2705
g5
I14
sg40
Nsg41
g7
(g11
S'\x00\x00\x00\xc0\x1bB\xeb\xbf'
p2706
tp2707
Rp2708
sbsg24
(lp2709
I160
asba(ipyboost.adtree
SplitterNode
p2710
(dp2711
g3
(lp2712
sg5
I150
sg6
g7
(g11
S'0\x8d\xa5&7\xd5\xe9\xbf'
p2713
tp2714
Rp2715
sg17
g7
(g11
S'\xe6\x13a \xb93\xc5?'
p2716
tp2717
Rp2718
sg18
(lp2719
g36
ag92
a(ipyboost.conditions
ThresholdCondition
p2720
(dp2721
g5
I27
sg40
I00
sg41
g98
sbasg20
g82
sg21
(ipyboost.conditions
ThresholdCondition
p2722
(dp2723
g5
I24
sg40
Nsg41
g7
(g11
S'\x00\x00\x00`\x88p\xed?'
p2724
tp2725
Rp2726
sbsg24
(lp2727
I187
asba(ipyboost.adtree
SplitterNode
p2728
(dp2729
g3
(lp2730
I179
asg5
I151
sg6
g7
(g11
S'\x04\x1c\xa9\x8f\xdd{\xe8\xbf'
p2731
tp2732
Rp2733
sg17
g7
(g11
S'\xf6$\x90\xc2\\2\xea?'
p2734
tp2735
Rp2736
sg18
(lp2737
g110
ag218
ag236
a(ipyboost.conditions
ThresholdCondition
p2738
(dp2739
g5
I3
sg40
I01
sg41
g242
sbasg20
g226
sg21
(ipyboost.conditions
ThresholdCondition
p2740
(dp2741
g5
I22
sg40
Nsg41
g7
(g11
S'\x00\x00\x00p\xf8\xb0\xfa?'
p2742
tp2743
Rp2744
sbsg24
(lp2745
sba(ipyboost.adtree
SplitterNode
p2746
(dp2747
g3
(lp2748
sg5
I152
sg6
g7
(g11
S'l\r\r\xfbc\xa4\x12\xc0'
p2749
tp2750
Rp2751
sg17
g7
(g11
S',\xa5%\xc9Ik\x19@'
p2752
tp2753
Rp2754
sg18
(lp2755
g36
ag56
ag74
ag596
ag632
a(ipyboost.conditions
ThresholdCondition
p2756
(dp2757
g5
I22
sg40
I00
sg41
g638
sbasg20
g622
sg21
(ipyboost.conditions
ThresholdCondition
p2758
(dp2759
g5
I13
sg40
Nsg41
g7
(g11
S'\x00\x00\x00\xd0\xe2\x90\xf4?'
p2760
tp2761
Rp2762
sbsg24
(lp2763
sba(ipyboost.adtree
SplitterNode
p2764
(dp2765
g3
(lp2766
sg5
I153
sg6
g7
(g11
S'A\xc6\xf2$\x7f\x88\x92?'
p2767
tp2768
Rp2769
sg17
g7
(g11
S'\xcec%\xe3y"\x07@'
p2770
tp2771
Rp2772
sg18
(lp2773
(ipyboost.conditions
TrueCondition
p2774
(dp2775
basg20
g1
sg21
(ipyboost.conditions
ThresholdCondition
p2776
(dp2777
g5
I5
sg40
Nsg41
g7
(g11
S'\x00\x00\x00 y\xe2\x01@'
p2778
tp2779
Rp2780
sbsg24
(lp2781
sba(ipyboost.adtree
SplitterNode
p2782
(dp2783
g3
(lp2784
sg5
I154
sg6
g7
(g11
S'\ne\x87\x85\xa8\x91\x0f@'
p2785
tp2786
Rp2787
sg17
g7
(g11
S'\xa4\x9f=\xa8^\x00\xe8\xbf'
p2788
tp2789
Rp2790
sg18
(lp2791
g36
ag56
ag182
ag1766
ag2018
a(ipyboost.conditions
ThresholdCondition
p2792
(dp2793
g5
I9
sg40
I00
sg41
g2024
sbasg20
g2008
sg21
(ipyboost.conditions
ThresholdCondition
p2794
(dp2795
g5
I0
sg40
Nsg41
g7
(g11
S'\x00\x00\x00\xc0\x80\xa6\xed?'
p2796
tp2797
Rp2798
sbsg24
(lp2799
I191
asba(ipyboost.adtree
SplitterNode
p2800
(dp2801
g3
(lp2802
sg5
I155
sg6
g7
(g11
S'N\x9b\x81@\xcb\xa9\x13@'
p2803
tp2804
Rp2805
sg17
g7
(g11
S'Q\xc1\xc2\xb46k\xeb\xbf'
p2806
tp2807
Rp2808
sg18
(lp2809
g36
ag56
ag308
ag1568
ag1676
ag1982
a(ipyboost.conditions
ThresholdCondition
p2810
(dp2811
g5
I21
sg40
I00
sg41
g1988
sbasg20
g1972
sg21
(ipyboost.conditions
ThresholdCondition
p2812
(dp2813
g5
I13
sg40
Nsg41
g7
(g11
S'\x00\x00\x00P\xac\xdb\xdc?'
p2814
tp2815
Rp2816
sbsg24
(lp2817
I180
asba(ipyboost.adtree
SplitterNode
p2818
(dp2819
g3
(lp2820
sg5
I156
sg6
g7
(g11
S'\xb1\x02Q\xb2\x9d\xbb\x01@'
p2821
tp2822
Rp2823
sg17
g7
(g11
S'\x8f\x90\xe1\x94\x16J\xea\xbf'
p2824
tp2825
Rp2826
sg18
(lp2827
g36
ag56
ag308
ag542
ag1496
ag2216
a(ipyboost.conditions
ThresholdCondition
p2828
(dp2829
g5
I3
sg40
I00
sg41
g2222
sbasg20
g2206
sg21
(ipyboost.conditions
ThresholdCondition
p2830
(dp2831
g5
I22
sg40
Nsg41
g7
(g11
S'\x00\x00\x00\xc0\xe9\x00\xe9?'
p2832
tp2833
Rp2834
sbsg24
(lp2835
I189
asba(ipyboost.adtree
SplitterNode
p2836
(dp2837
g3
(lp2838
sg5
I157
sg6
g7
(g11
S'V\x10H\x9e\xba\xd2\xf2\xbf'
p2839
tp2840
Rp2841
sg17
g7
(g11
S'k\xa6\xba=J\xaf\xd7?'
p2842
tp2843
Rp2844
sg18
(lp2845
g110
ag218
ag290
ag326
ag1226
ag1514
ag1838
a(ipyboost.conditions
ThresholdCondition
p2846
(dp2847
g5
I10
sg40
I00
sg41
g1844
sbasg20
g1828
sg21
(ipyboost.conditions
ThresholdCondition
p2848
(dp2849
g5
I9
sg40
Nsg41
g7
(g11
S'\x00\x00\x00\x00\x00\x1e\xe3?'
p2850
tp2851
Rp2852
sbsg24
(lp2853
sba(ipyboost.adtree
SplitterNode
p2854
(dp2855
g3
(lp2856
sg5
I158
sg6
g7
(g11
S'\xcd\x86\x06\x0f\xf7\xa7\x0c\xc0'
p2857
tp2858
Rp2859
sg17
g7
(g11
S'\xa0\xff\x8f\x99\x8a\xa1\x0b@'
p2860
tp2861
Rp2862
sg18
(lp2863
g36
ag92
ag146
ag938
ag956
ag1730
a(ipyboost.conditions
ThresholdCondition
p2864
(dp2865
g5
I5
sg40
I00
sg41
g1736
sbasg20
g1720
sg21
(ipyboost.conditions
ThresholdCondition
p2866
(dp2867
g5
I18
sg40
Nsg41
g7
(g11
S'\x00\x00\x00\x083\xf9\xd0?'
p2868
tp2869
Rp2870
sbsg24
(lp2871
sba(ipyboost.adtree
SplitterNode
p2872
(dp2873
g3
(lp2874
sg5
I159
sg6
g7
(g11
S"l\x0e\xed'\xe1\xbf\xf4\xbf"
p2875
tp2876
Rp2877
sg17
g7
(g11
S'\x99V0sY\x8f\xf6?'
p2878
tp2879
Rp2880
sg18
(lp2881
g36
ag92
ag146
ag938
ag1550
a(ipyboost.conditions
ThresholdCondition
p2882
(dp2883
g5
I24
sg40
I01
sg41
g1556
sbasg20
g1540
sg21
(ipyboost.conditions
ThresholdCondition
p2884
(dp2885
g5
I22
sg40
Nsg41
g7
(g11
S'\x00\x00\x00@3\r\xe9?'
p2886
tp2887
Rp2888
sbsg24
(lp2889
I200
asba(ipyboost.adtree
SplitterNode
p2890
(dp2891
g3
(lp2892
I165
asg5
I160
sg6
g7
(g11
S'Jo\r\x90\xe5\xac\xeb?'
p2893
tp2894
Rp2895
sg17
g7
(g11
S'\x01\x84\xf7\xd7\xe3\xe1\xfe\xbf'
p2896
tp2897
Rp2898
sg18
(lp2899
g36
ag56
ag308
ag1568
ag1676
ag1982
ag2288
ag2702
a(ipyboost.conditions
ThresholdCondition
p2900
(dp2901
g5
I14
sg40
I00
sg41
g2708
sbasg20
g2692
sg21
(ipyboost.conditions
ThresholdCondition
p2902
(dp2903
g5
I13
sg40
Nsg41
g7
(g11
S'\x00\x00\x00\xc0%\xfd\xf4?'
p2904
tp2905
Rp2906
sbsg24
(lp2907
sba(ipyboost.adtree
SplitterNode
p2908
(dp2909
g3
(lp2910
sg5
I161
sg6
g7
(g11
S'\xa0\xff\x8f\x99\x8a\xa1\x0b@'
p2911
tp2912
Rp2913
sg17
g7
(g11
S'\xa6\xe1~\xe1\xa4$\xc0\xbf'
p2914
tp2915
Rp2916
sg18
(lp2917
g36
ag56
ag74
a(ipyboost.conditions
ThresholdCondition
p2918
(dp2919
g5
I26
sg40
I00
sg41
g80
sbasg20
g64
sg21
(ipyboost.conditions
ThresholdCondition
p2920
(dp2921
g5
I26
sg40
Nsg41
g7
(g11
S'\x00\x00\x00\xb0A\x92\xe8?'
p2922
tp2923
Rp2924
sbsg24
(lp2925
sba(ipyboost.adtree
SplitterNode
p2926
(dp2927
g3
(lp2928
sg5
I162
sg6
g7
(g11
S'\xe77P\x86\x12\xf8\n\xc0'
p2929
tp2930
Rp2931
sg17
g7
(g11
S'\xd8\xc0.\xe6\x81\xb1\xa5?'
p2932
tp2933
Rp2934
sg18
(lp2935
g110
ag218
ag290
ag326
ag1226
ag1388
ag1622
a(ipyboost.conditions
ThresholdCondition
p2936
(dp2937
g5
I1
sg40
I01
sg41
g1628
sbasg20
g1612
sg21
(ipyboost.conditions
ThresholdCondition
p2938
(dp2939
g5
I19
sg40
Nsg41
g7
(g11
S'\x00\x00\x00P\x9ai\xe7\xbf'
p2940
tp2941
Rp2942
sbsg24
(lp2943
I173
asba(ipyboost.adtree
SplitterNode
p2944
(dp2945
g3
(lp2946
sg5
I163
sg6
g7
(g11
S'\xd5\x90]si\xf8p?'
p2947
tp2948
Rp2949
sg17
g7
(g11
S'\x8b\xed<a\xf6r\xfb?'
p2950
tp2951
Rp2952
sg18
(lp2953
g36
ag200
ag1208
ag1244
ag1262
a(ipyboost.conditions
ThresholdCondition
p2954
(dp2955
g5
I26
sg40
I00
sg41
g1268
sbasg20
g1252
sg21
(ipyboost.conditions
ThresholdCondition
p2956
(dp2957
g5
I15
sg40
Nsg41
g7
(g11
S'\x00\x00\x00\xf0\xc3\xbd\xc7\xbf'
p2958
tp2959
Rp2960
sbsg24
(lp2961
sba(ipyboost.adtree
SplitterNode
p2962
(dp2963
g3
(lp2964
sg5
I164
sg6
g7
(g11
S'\xec\xde(\x17\x0b\x11\x00\xc0'
p2965
tp2966
Rp2967
sg17
g7
(g11
S'&\x8c\x9e }\xff\x13@'
p2968
tp2969
Rp2970
sg18
(lp2971
g36
ag92
ag146
ag938
ag1550
ag2054
ag2558
a(ipyboost.conditions
ThresholdCondition
p2972
(dp2973
g5
I27
sg40
I01
sg41
g2564
sbasg20
g2548
sg21
(ipyboost.conditions
ThresholdCondition
p2974
(dp2975
g5
I10
sg40
Nsg41
g7
(g11
S'\x00\x00\x00\xf8\xa6_\xf6?'
p2976
tp2977
Rp2978
sbsg24
(lp2979
sba(ipyboost.adtree
SplitterNode
p2980
(dp2981
g3
(lp2982
sg5
I165
sg6
g7
(g11
S'\x11u\xe4CW\x9e\x05@'
p2983
tp2984
Rp2985
sg17
g7
(g11
S'\x9a\x8e\x85\x84H\xb3\xf1\xbf'
p2986
tp2987
Rp2988
sg18
(lp2989
g36
ag56
ag308
ag1568
ag1676
ag1982
ag2288
ag2702
ag2900
a(ipyboost.conditions
ThresholdCondition
p2990
(dp2991
g5
I13
sg40
I01
sg41
g2906
sbasg20
g2890
sg21
(ipyboost.conditions
ThresholdCondition
p2992
(dp2993
g5
I15
sg40
Nsg41
g7
(g11
S'\x00\x00\x00`\xd9p\xe2?'
p2994
tp2995
Rp2996
sbsg24
(lp2997
sba(ipyboost.adtree
SplitterNode
p2998
(dp2999
g3
(lp3000
sg5
I166
sg6
g7
(g11
S'^\xdc\x88\xae\xea\x86\xfd\xbf'
p3001
tp3002
Rp3003
sg17
g7
(g11
S'}\xa2+\x1d!\x8e\x07@'
p3004
tp3005
Rp3006
sg18
(lp3007
g362
ag2108
a(ipyboost.conditions
ThresholdCondition
p3008
(dp3009
g5
I17
sg40
I00
sg41
g2114
sbasg20
g2098
sg21
(ipyboost.conditions
ThresholdCondition
p3010
(dp3011
g5
I3
sg40
Nsg41
g7
(g11
S'\x00\x00\x00\x10(\xd8\xf7?'
p3012
tp3013
Rp3014
sbsg24
(lp3015
sba(ipyboost.adtree
SplitterNode
p3016
(dp3017
g3
(lp3018
I192
asg5
I167
sg6
g7
(g11
S'f\t\xe31\x8dJ\xf2\xbf'
p3019
tp3020
Rp3021
sg17
g7
(g11
S'\xe5\xe7\xc8\x97\\\xeb\x0e@'
p3022
tp3023
Rp3024
sg18
(lp3025
g36
ag92
ag146
ag1478
ag1856
a(ipyboost.conditions
ThresholdCondition
p3026
(dp3027
g5
I10
sg40
I01
sg41
g1862
sbasg20
g1846
sg21
(ipyboost.conditions
ThresholdCondition
p3028
(dp3029
g5
I9
sg40
Nsg41
g7
(g11
S'\x00\x00\x00@\xd1\x8f\xfb?'
p3030
tp3031
Rp3032
sbsg24
(lp3033
sba(ipyboost.adtree
SplitterNode
p3034
(dp3035
g3
(lp3036
I183
asg5
I168
sg6
g7
(g11
S'\xd0\xf4\xdd\xea\x93K\xd6\xbf'
p3037
tp3038
Rp3039
sg17
g7
(g11
S'\x99&\xbcLBV\xfc?'
p3040
tp3041
Rp3042
sg18
(lp3043
g36
ag56
ag308
ag1568
ag1784
a(ipyboost.conditions
ThresholdCondition
p3044
(dp3045
g5
I13
sg40
I00
sg41
g1790
sbasg20
g1774
sg21
(ipyboost.conditions
ThresholdCondition
p3046
(dp3047
g5
I23
sg40
Nsg41
g7
(g11
S'\x00\x00\x00@C\x93\xef?'
p3048
tp3049
Rp3050
sbsg24
(lp3051
sba(ipyboost.adtree
SplitterNode
p3052
(dp3053
g3
(lp3054
sg5
I169
sg6
g7
(g11
S'\x1d`\x1cE\xe8\xef\xe1?'
p3055
tp3056
Rp3057
sg17
g7
(g11
S'\xba\xf85p\xe1i\xd5\xbf'
p3058
tp3059
Rp3060
sg18
(lp3061
g36
ag56
ag182
ag848
ag1316
ag2234
a(ipyboost.conditions
ThresholdCondition
p3062
(dp3063
g5
I4
sg40
I00
sg41
g2240
sbasg20
g2224
sg21
(ipyboost.conditions
ThresholdCondition
p3064
(dp3065
g5
I27
sg40
Nsg41
g7
(g11
S'\x00\x00\x00\xd0\x16\x88\xf3?'
p3066
tp3067
Rp3068
sbsg24
(lp3069
sba(ipyboost.adtree
SplitterNode
p3070
(dp3071
g3
(lp3072
sg5
I170
sg6
g7
(g11
S'\xb8\x11\xa9S\xfae\xed\xbf'
p3073
tp3074
Rp3075
sg17
g7
(g11
S'\xc22MI\x1eu\x08@'
p3076
tp3077
Rp3078
sg18
(lp3079
g110
ag218
ag1136
ag1190
ag1298
a(ipyboost.conditions
ThresholdCondition
p3080
(dp3081
g5
I6
sg40
I01
sg41
g1304
sbasg20
g1288
sg21
(ipyboost.conditions
ThresholdCondition
p3082
(dp3083
g5
I1
sg40
Nsg41
g7
(g11
S'\x00\x00\x00P\x98\xb8\xcf?'
p3084
tp3085
Rp3086
sbsg24
(lp3087
sba(ipyboost.adtree
SplitterNode
p3088
(dp3089
g3
(lp3090
sg5
I171
sg6
g7
(g11
S'\xe8\x14\\\x0bg}\xeb\xbf'
p3091
tp3092
Rp3093
sg17
g7
(g11
S'\xa0\xff\x8f\x99\x8a\xa1\x0b@'
p3094
tp3095
Rp3096
sg18
(lp3097
g36
ag56
ag182
a(ipyboost.conditions
ThresholdCondition
p3098
(dp3099
g5
I25
sg40
I01
sg41
g188
sbasg20
g172
sg21
(ipyboost.conditions
ThresholdCondition
p3100
(dp3101
g5
I11
sg40
Nsg41
g7
(g11
S'\x00\x00\x00\xb0t\xe8\xf8?'
p3102
tp3103
Rp3104
sbsg24
(lp3105
sba(ipyboost.adtree
SplitterNode
p3106
(dp3107
g3
(lp3108
sg5
I172
sg6
g7
(g11
S'p\xbb\xdc\xb6\xd6H\xe0\xbf'
p3109
tp3110
Rp3111
sg17
g7
(g11
S'T\xd8ecQ\\\xe9?'
p3112
tp3113
Rp3114
sg18
(lp3115
g36
ag56
ag308
ag1568
ag1676
ag1982
ag2396
a(ipyboost.conditions
ThresholdCondition
p3116
(dp3117
g5
I13
sg40
I01
sg41
g2402
sbasg20
g2386
sg21
(ipyboost.conditions
ThresholdCondition
p3118
(dp3119
g5
I18
sg40
Nsg41
g7
(g11
S'\x00\x00\x00`H\xa3\xeb\xbf'
p3120
tp3121
Rp3122
sbsg24
(lp3123
sba(ipyboost.adtree
SplitterNode
p3124
(dp3125
g3
(lp3126
sg5
I173
sg6
g7
(g11
S'W^ \xc1\xc5\x1c\x0f\xc0'
p3127
tp3128
Rp3129
sg17
g7
(g11
S'\xa0\xff\x8f\x99\x8a\xa1\x0b@'
p3130
tp3131
Rp3132
sg18
(lp3133
g110
ag218
ag290
ag326
ag1226
ag1388
ag1622
ag2936
a(ipyboost.conditions
ThresholdCondition
p3134
(dp3135
g5
I19
sg40
I00
sg41
g2942
sbasg20
g2926
sg21
(ipyboost.conditions
ThresholdCondition
p3136
(dp3137
g5
I7
sg40
Nsg41
g7
(g11
S'\x00\x00\x00\xe0\x14\xcc\xef\xbf'
p3138
tp3139
Rp3140
sbsg24
(lp3141
sba(ipyboost.adtree
SplitterNode
p3142
(dp3143
g3
(lp3144
sg5
I174
sg6
g7
(g11
S'N%\nB\x9f\xa7\x0e@'
p3145
tp3146
Rp3147
sg17
g7
(g11
S'\xdc\x88:\xf7\xd4\x9f\xe8\xbf'
p3148
tp3149
Rp3150
sg18
(lp3151
g36
ag56
ag308
ag1568
ag1784
ag1820
a(ipyboost.conditions
ThresholdCondition
p3152
(dp3153
g5
I3
sg40
I00
sg41
g1826
sbasg20
g1810
sg21
(ipyboost.conditions
ThresholdCondition
p3154
(dp3155
g5
I13
sg40
Nsg41
g7
(g11
S'\x00\x00\x000\x04\t\xe5?'
p3156
tp3157
Rp3158
sbsg24
(lp3159
sba(ipyboost.adtree
SplitterNode
p3160
(dp3161
g3
(lp3162
sg5
I175
sg6
g7
(g11
S'\xe9W\xfd\xa8\xa3\x98\xf3?'
p3163
tp3164
Rp3165
sg17
g7
(g11
S'a:=s\xd3\x03\xe8\xbf'
p3166
tp3167
Rp3168
sg18
(lp3169
g36
ag200
ag1208
ag1370
a(ipyboost.conditions
ThresholdCondition
p3170
(dp3171
g5
I15
sg40
I01
sg41
g1376
sbasg20
g1360
sg21
(ipyboost.conditions
ThresholdCondition
p3172
(dp3173
g5
I0
sg40
Nsg41
g7
(g11
S'\x00\x00\x00pW\xd8\xee?'
p3174
tp3175
Rp3176
sbsg24
(lp3177
sba(ipyboost.adtree
SplitterNode
p3178
(dp3179
g3
(lp3180
sg5
I176
sg6
g7
(g11
S'*.rZ\x05\xae\xbe?'
p3181
tp3182
Rp3183
sg17
g7
(g11
S't\xad(\x0f* \x01\xc0'
p3184
tp3185
Rp3186
sg18
(lp3187
g110
ag218
a(ipyboost.conditions
ThresholdCondition
p3188
(dp3189
g5
I27
sg40
I00
sg41
g224
sbasg20
g208
sg21
(ipyboost.conditions
ThresholdCondition
p3190
(dp3191
g5
I3
sg40
Nsg41
g7
(g11
S'\x00\x00\x00\x80o\xf0\xfc?'
p3192
tp3193
Rp3194
sbsg24
(lp3195
sba(ipyboost.adtree
SplitterNode
p3196
(dp3197
g3
(lp3198
sg5
I177
sg6
g7
(g11
S'P\x17N\xcc\xf0|\xf5\xbf'
p3199
tp3200
Rp3201
sg17
g7
(g11
S'\xf2\xd9\xaaPpR\x14@'
p3202
tp3203
Rp3204
sg18
(lp3205
g36
ag92
ag146
ag938
ag956
ag2360
ag2378
a(ipyboost.conditions
ThresholdCondition
p3206
(dp3207
g5
I4
sg40
I00
sg41
g2384
sbasg20
g2368
sg21
(ipyboost.conditions
ThresholdCondition
p3208
(dp3209
g5
I13
sg40
Nsg41
g7
(g11
S'\x00\x00\x00`\xc9\xb3\xe0?'
p3210
tp3211
Rp3212
sbsg24
(lp3213
sba(ipyboost.adtree
SplitterNode
p3214
(dp3215
g3
(lp3216
sg5
I178
sg6
g7
(g11
S'\xa0\xff\x8f\x99\x8a\xa1\x0b@'
p3217
tp3218
Rp3219
sg17
g7
(g11
S'\xfa\xf4\x12*DD \xc0'
p3220
tp3221
Rp3222
sg18
(lp3223
g36
ag56
ag308
ag542
ag1496
ag2162
a(ipyboost.conditions
ThresholdCondition
p3224
(dp3225
g5
I9
sg40
I01
sg41
g2168
sbasg20
g2152
sg21
(ipyboost.conditions
ThresholdCondition
p3226
(dp3227
g5
I9
sg40
Nsg41
g7
(g11
S'\x00\x00\x000G\x07\xd8?'
p3228
tp3229
Rp3230
sbsg24
(lp3231
sba(ipyboost.adtree
SplitterNode
p3232
(dp3233
g3
(lp3234
sg5
I179
sg6
g7
(g11
S'\xb2\xb0sj_\x91\xcb?'
p3235
tp3236
Rp3237
sg17
g7
(g11
S'\\\xfb\xbb\xa8\x87\x0b\xfa\xbf'
p3238
tp3239
Rp3240
sg18
(lp3241
g110
ag218
ag236
ag2738
a(ipyboost.conditions
ThresholdCondition
p3242
(dp3243
g5
I22
sg40
I01
sg41
g2744
sbasg20
g2728
sg21
(ipyboost.conditions
ThresholdCondition
p3244
(dp3245
g5
I25
sg40
Nsg41
g7
(g11
S'\x00\x00\x00Pt\xc5\xf1?'
p3246
tp3247
Rp3248
sbsg24
(lp3249
sba(ipyboost.adtree
SplitterNode
p3250
(dp3251
g3
(lp3252
sg5
I180
sg6
g7
(g11
S"'\x1b\xa5\xd8z\x8f\xf3\xbf"
p3253
tp3254
Rp3255
sg17
g7
(g11
S'\xa8|<j8\x0c\x02@'
p3256
tp3257
Rp3258
sg18
(lp3259
g36
ag56
ag308
ag1568
ag1676
ag1982
ag2810
a(ipyboost.conditions
ThresholdCondition
p3260
(dp3261
g5
I13
sg40
I00
sg41
g2816
sbasg20
g2800
sg21
(ipyboost.conditions
ThresholdCondition
p3262
(dp3263
g5
I6
sg40
Nsg41
g7
(g11
S'\x00\x00\x000\xd1\xc9\xf3?'
p3264
tp3265
Rp3266
sbsg24
(lp3267
sba(ipyboost.adtree
SplitterNode
p3268
(dp3269
g3
(lp3270
I190
asg5
I181
sg6
g7
(g11
S'r\xe5\xa9\xf4\x8fC\xe0\xbf'
p3271
tp3272
Rp3273
sg17
g7
(g11
S'\xdb\x1f\xe7\x16\xe9\t\xf3?'
p3274
tp3275
Rp3276
sg18
(lp3277
g36
ag200
a(ipyboost.conditions
ThresholdCondition
p3278
(dp3279
g5
I21
sg40
I00
sg41
g206
sbasg20
g190
sg21
(ipyboost.conditions
ThresholdCondition
p3280
(dp3281
g5
I18
sg40
Nsg41
g7
(g11
S'\x00\x00\x000\x18*\xd3\xbf'
p3282
tp3283
Rp3284
sbsg24
(lp3285
sba(ipyboost.adtree
SplitterNode
p3286
(dp3287
g3
(lp3288
sg5
I182
sg6
g7
(g11
S'\x17\x81\xf1\x8c-?\xc8?'
p3289
tp3290
Rp3291
sg17
g7
(g11
S'\xa0\xff\x8f\x99\x8a\xa1\x0b@'
p3292
tp3293
Rp3294
sg18
(lp3295
g110
ag218
ag236
ag866
ag1352
a(ipyboost.conditions
ThresholdCondition
p3296
(dp3297
g5
I0
sg40
I01
sg41
g1358
sbasg20
g1342
sg21
(ipyboost.conditions
ThresholdCondition
p3298
(dp3299
g5
I15
sg40
Nsg41
g7
(g11
S'\x00\x00\x00p\xc5g\xf6?'
p3300
tp3301
Rp3302
sbsg24
(lp3303
sba(ipyboost.adtree
SplitterNode
p3304
(dp3305
g3
(lp3306
sg5
I183
sg6
g7
(g11
S'+\x85]\xe7+4\xe6\xbf'
p3307
tp3308
Rp3309
sg17
g7
(g11
S'j\xaa\xab\x82\x8a?\xe9?'
p3310
tp3311
Rp3312
sg18
(lp3313
g36
ag56
ag308
ag1568
ag1784
ag3044
a(ipyboost.conditions
ThresholdCondition
p3314
(dp3315
g5
I23
sg40
I01
sg41
g3050
sbasg20
g3034
sg21
(ipyboost.conditions
ThresholdCondition
p3316
(dp3317
g5
I9
sg40
Nsg41
g7
(g11
S'\x00\x00\x00\x90\x84\xe8\xeb?'
p3318
tp3319
Rp3320
sbsg24
(lp3321
sba(ipyboost.adtree
SplitterNode
p3322
(dp3323
g3
(lp3324
sg5
I184
sg6
g7
(g11
S'v\xc4~\xbb\x99\x07\x11\xc0'
p3325
tp3326
Rp3327
sg17
g7
(g11
S'\xa0\xff\x8f\x99\x8a\xa1\x0b@'
p3328
tp3329
Rp3330
sg18
(lp3331
g110
ag218
ag290
ag326
ag1226
ag1658
ag1712
ag2252
a(ipyboost.conditions
ThresholdCondition
p3332
(dp3333
g5
I18
sg40
I01
sg41
g2258
sbasg20
g2242
sg21
(ipyboost.conditions
ThresholdCondition
p3334
(dp3335
g5
I9
sg40
Nsg41
g7
(g11
S'\x00\x00\x00\x90\x1ck\xf9?'
p3336
tp3337
Rp3338
sbsg24
(lp3339
sba(ipyboost.adtree
SplitterNode
p3340
(dp3341
g3
(lp3342
sg5
I185
sg6
g7
(g11
S'\xa7\x7f\x0f\xd2\xa7\xeb\xde\xbf'
p3343
tp3344
Rp3345
sg17
g7
(g11
S'\x16\x9fmZb\x11\xe5?'
p3346
tp3347
Rp3348
sg18
(lp3349
g36
ag56
ag308
ag1568
ag1676
ag1982
ag2288
a(ipyboost.conditions
ThresholdCondition
p3350
(dp3351
g5
I6
sg40
I01
sg41
g2294
sbasg20
g2278
sg21
(ipyboost.conditions
ThresholdCondition
p3352
(dp3353
g5
I2
sg40
Nsg41
g7
(g11
S'\x00\x00\x00\xc0\x11\xf1\xbc?'
p3354
tp3355
Rp3356
sbsg24
(lp3357
sba(ipyboost.adtree
SplitterNode
p3358
(dp3359
g3
(lp3360
sg5
I186
sg6
g7
(g11
S'R%\xe2\xf0\xedy\x13@'
p3361
tp3362
Rp3363
sg17
g7
(g11
S'\xb2E\xd6\xd2\x9d[\x08\xc0'
p3364
tp3365
Rp3366
sg18
(lp3367
g36
ag56
ag308
ag1568
ag1676
ag1982
ag2396
ag2684
a(ipyboost.conditions
ThresholdCondition
p3368
(dp3369
g5
I18
sg40
I00
sg41
g2690
sbasg20
g2674
sg21
(ipyboost.conditions
ThresholdCondition
p3370
(dp3371
g5
I5
sg40
Nsg41
g7
(g11
S'\x00\x00\x000\xafs\xe2?'
p3372
tp3373
Rp3374
sbsg24
(lp3375
sba(ipyboost.adtree
SplitterNode
p3376
(dp3377
g3
(lp3378
I196
asg5
I187
sg6
g7
(g11
S'C\xef\xe6\x16R$\xd7?'
p3379
tp3380
Rp3381
sg17
g7
(g11
S'2eO\x8e1\x05\xed\xbf'
p3382
tp3383
Rp3384
sg18
(lp3385
g36
ag92
ag2720
a(ipyboost.conditions
ThresholdCondition
p3386
(dp3387
g5
I24
sg40
I00
sg41
g2726
sbasg20
g2710
sg21
(ipyboost.conditions
ThresholdCondition
p3388
(dp3389
g5
I0
sg40
Nsg41
g7
(g11
S'\x00\x00\x000\xd2)\x00@'
p3390
tp3391
Rp3392
sbsg24
(lp3393
sba(ipyboost.adtree
SplitterNode
p3394
(dp3395
g3
(lp3396
sg5
I188
sg6
g7
(g11
S'\xf4\xd2\xaf\tc\xe4\xe6?'
p3397
tp3398
Rp3399
sg17
g7
(g11
S'\xd7\xd1p\xe3\x14\x18\xe0\xbf'
p3400
tp3401
Rp3402
sg18
(lp3403
g362
ag1694
a(ipyboost.conditions
ThresholdCondition
p3404
(dp3405
g5
I9
sg40
I01
sg41
g1700
sbasg20
g1684
sg21
(ipyboost.conditions
ThresholdCondition
p3406
(dp3407
g5
I4
sg40
Nsg41
g7
(g11
S'\x00\x00\x00\x80_"\xaf\xbf'
p3408
tp3409
Rp3410
sbsg24
(lp3411
sba(ipyboost.adtree
SplitterNode
p3412
(dp3413
g3
(lp3414
sg5
I189
sg6
g7
(g11
S'\xe8na\x19\xd2P\x19\xc0'
p3415
tp3416
Rp3417
sg17
g7
(g11
S'OF2(\x19\x1a\x07@'
p3418
tp3419
Rp3420
sg18
(lp3421
g36
ag56
ag308
ag542
ag1496
ag2216
ag2828
a(ipyboost.conditions
ThresholdCondition
p3422
(dp3423
g5
I22
sg40
I00
sg41
g2834
sbasg20
g2818
sg21
(ipyboost.conditions
ThresholdCondition
p3424
(dp3425
g5
I22
sg40
Nsg41
g7
(g11
S'\x00\x00\x00\xa0\x0b5\xe9?'
p3426
tp3427
Rp3428
sbsg24
(lp3429
sba(ipyboost.adtree
SplitterNode
p3430
(dp3431
g3
(lp3432
sg5
I190
sg6
g7
(g11
S'SDe\xf3\xc1G\x11@'
p3433
tp3434
Rp3435
sg17
g7
(g11
S'\xed_\xb3\xdeS[\xf5\xbf'
p3436
tp3437
Rp3438
sg18
(lp3439
g36
ag200
ag3278
a(ipyboost.conditions
ThresholdCondition
p3440
(dp3441
g5
I18
sg40
I01
sg41
g3284
sbasg20
g3268
sg21
(ipyboost.conditions
ThresholdCondition
p3442
(dp3443
g5
I1
sg40
Nsg41
g7
(g11
S'\x00\x00\x00 |&\xf4\xbf'
p3444
tp3445
Rp3446
sbsg24
(lp3447
sba(ipyboost.adtree
SplitterNode
p3448
(dp3449
g3
(lp3450
sg5
I191
sg6
g7
(g11
S'n\xc6\xe89\xb2\xf6\x0e@'
p3451
tp3452
Rp3453
sg17
g7
(g11
S'-\x06K=M>\xcc\xbf'
p3454
tp3455
Rp3456
sg18
(lp3457
g36
ag56
ag182
ag1766
ag2018
ag2792
a(ipyboost.conditions
ThresholdCondition
p3458
(dp3459
g5
I0
sg40
I00
sg41
g2798
sbasg20
g2782
sg21
(ipyboost.conditions
ThresholdCondition
p3460
(dp3461
g5
I26
sg40
Nsg41
g7
(g11
S'\x00\x00\x00\xd0\x9fh\xe6?'
p3462
tp3463
Rp3464
sbsg24
(lp3465
sba(ipyboost.adtree
SplitterNode
p3466
(dp3467
g3
(lp3468
sg5
I192
sg6
g7
(g11
S'\x1f\x9fBR\xd0\r\x07\xc0'
p3469
tp3470
Rp3471
sg17
g7
(g11
S'\x1e\xa8\xb8\xa0\xb3S\xcc\xbf'
p3472
tp3473
Rp3474
sg18
(lp3475
g36
ag92
ag146
ag1478
ag1856
ag3026
a(ipyboost.conditions
ThresholdCondition
p3476
(dp3477
g5
I9
sg40
I01
sg41
g3032
sbasg20
g3016
sg21
(ipyboost.conditions
ThresholdCondition
p3478
(dp3479
g5
I6
sg40
Nsg41
g7
(g11
S'\x00\x00\x00@;\x84\xe5\xbf'
p3480
tp3481
Rp3482
sbsg24
(lp3483
sba(ipyboost.adtree
SplitterNode
p3484
(dp3485
g3
(lp3486
sg5
I193
sg6
g7
(g11
S'\xc7H\x99.A\xf8\xed\xbf'
p3487
tp3488
Rp3489
sg17
g7
(g11
S'F\xc0\x80H\x13|\x0f@'
p3490
tp3491
Rp3492
sg18
(lp3493
g36
ag56
ag182
ag1766
a(ipyboost.conditions
ThresholdCondition
p3494
(dp3495
g5
I4
sg40
I01
sg41
g1772
sbasg20
g1756
sg21
(ipyboost.conditions
ThresholdCondition
p3496
(dp3497
g5
I5
sg40
Nsg41
g7
(g11
S'\x00\x00\x00\x10\xb5F\xfd?'
p3498
tp3499
Rp3500
sbsg24
(lp3501
sba(ipyboost.adtree
SplitterNode
p3502
(dp3503
g3
(lp3504
sg5
I194
sg6
g7
(g11
S'\xe5~[\x9e\xd0X\x10\xc0'
p3505
tp3506
Rp3507
sg17
g7
(g11
S'\x19\xc8\xb2\x89\x17\x9f\xaa\xbf'
p3508
tp3509
Rp3510
sg18
(lp3511
g110
ag218
ag236
ag866
ag1352
ag2450
ag2648
a(ipyboost.conditions
ThresholdCondition
p3512
(dp3513
g5
I25
sg40
I00
sg41
g2654
sbasg20
g2638
sg21
(ipyboost.conditions
ThresholdCondition
p3514
(dp3515
g5
I21
sg40
Nsg41
g7
(g11
S'\x00\x00\x00\x00iG\xf0?'
p3516
tp3517
Rp3518
sbsg24
(lp3519
sba(ipyboost.adtree
SplitterNode
p3520
(dp3521
g3
(lp3522
sg5
I195
sg6
g7
(g11
S'V\x82g\xb2kP\xf5\xbf'
p3523
tp3524
Rp3525
sg17
g7
(g11
S'E\xc6\x1f>>\x11\xf1?'
p3526
tp3527
Rp3528
sg18
(lp3529
g36
ag200
ag1208
ag1244
ag1262
a(ipyboost.conditions
ThresholdCondition
p3530
(dp3531
g5
I26
sg40
I00
sg41
g1268
sbasg20
g1252
sg21
(ipyboost.conditions
ThresholdCondition
p3532
(dp3533
g5
I9
sg40
Nsg41
g7
(g11
S'\x00\x00\x00\xe0\xc2\x93\xe7?'
p3534
tp3535
Rp3536
sbsg24
(lp3537
sba(ipyboost.adtree
SplitterNode
p3538
(dp3539
g3
(lp3540
sg5
I196
sg6
g7
(g11
S'5\x8a3%\xad\xcc\xd8?'
p3541
tp3542
Rp3543
sg17
g7
(g11
S'\x83Z\xb0\xdc\xbe\xcf\xea\xbf'
p3544
tp3545
Rp3546
sg18
(lp3547
g36
ag92
ag2720
ag3386
a(ipyboost.conditions
ThresholdCondition
p3548
(dp3549
g5
I0
sg40
I01
sg41
g3392
sbasg20
g3376
sg21
(ipyboost.conditions
ThresholdCondition
p3550
(dp3551
g5
I20
sg40
Nsg41
g7
(g11
S'\x00\x00\x00\xd8\x9c\x9c\x02@'
p3552
tp3553
Rp3554
sbsg24
(lp3555
sba(ipyboost.adtree
SplitterNode
p3556
(dp3557
g3
(lp3558
sg5
I197
sg6
g7
(g11
S'\xcaA\x81\xda\r\x8e\xf8\xbf'
p3559
tp3560
Rp3561
sg17
g7
(g11
S'?)IU\x9a\xf8\xd2?'
p3562
tp3563
Rp3564
sg18
(lp3565
g36
ag92
ag686
ag704
ag1100
ag1406
ag2036
a(ipyboost.conditions
ThresholdCondition
p3566
(dp3567
g5
I0
sg40
I00
sg41
g2042
sbasg20
g2026
sg21
(ipyboost.conditions
ThresholdCondition
p3568
(dp3569
g5
I23
sg40
Nsg41
g7
(g11
S'\x00\x00\x00@{\x83\xef?'
p3570
tp3571
Rp3572
sbsg24
(lp3573
sba(ipyboost.adtree
SplitterNode
p3574
(dp3575
g3
(lp3576
sg5
I198
sg6
g7
(g11
S'\xb8\x8b\xee#\n=\xf3?'
p3577
tp3578
Rp3579
sg17
g7
(g11
S'hj\xfa\xae)\xf2(\xc0'
p3580
tp3581
Rp3582
sg18
(lp3583
g36
ag56
ag182
ag848
ag1316
a(ipyboost.conditions
ThresholdCondition
p3584
(dp3585
g5
I9
sg40
I00
sg41
g1322
sbasg20
g1306
sg21
(ipyboost.conditions
ThresholdCondition
p3586
(dp3587
g5
I0
sg40
Nsg41
g7
(g11
S'\x00\x00\x00\xd0\x1a\x9f\xe3?'
p3588
tp3589
Rp3590
sbsg24
(lp3591
sba(ipyboost.adtree
SplitterNode
p3592
(dp3593
g3
(lp3594
sg5
I199
sg6
g7
(g11
S'\xa0\xff\x8f\x99\x8a\xa1\x0b\xc0'
p3595
tp3596
Rp3597
sg17
g7
(g11
S')\x10\n\xa9z\x18\xd1?'
p3598
tp3599
Rp3600
sg18
(lp3601
g36
ag92
ag686
ag704
ag1100
ag1406
a(ipyboost.conditions
ThresholdCondition
p3602
(dp3603
g5
I17
sg40
I00
sg41
g1412
sbasg20
g1396
sg21
(ipyboost.conditions
ThresholdCondition
p3604
(dp3605
g5
I18
sg40
Nsg41
g7
(g11
S'\x00\x00\x000\xf2\x18\xfb\xbf'
p3606
tp3607
Rp3608
sbsg24
(lp3609
sba(ipyboost.adtree
SplitterNode
p3610
(dp3611
g3
(lp3612
sg5
I200
sg6
g7
(g11
S'\xc1\x92\xdf\xa8\xad\x15\xf2?'
p3613
tp3614
Rp3615
sg17
g7
(g11
S'\x9eIiK\x08\x89\x13\xc0'
p3616
tp3617
Rp3618
sg18
(lp3619
g36
ag92
ag146
ag938
ag1550
ag2882
a(ipyboost.conditions
ThresholdCondition
p3620
(dp3621
g5
I22
sg40
I00
sg41
g2888
sbasg20
g2872
sg21
(ipyboost.conditions
ThresholdCondition
p3622
(dp3623
g5
I22
sg40
Nsg41
g7
(g11
S'\x00\x00\x00\xb0\x00\xce\xf3?'
p3624
tp3625
Rp3626
sbsg24
(lp3627
sba.