(lp0
(ipyboost.adtree
SplitterNode
p1
(dp2
S'lchild'
p3
(lp4
I1
aI2
aI3
aI4
aI5
aI6
aI7
aI8
aI9
aI10
aI11
aI12
aI13
aI14
aI15
aI16
aI17
aI18
aI19
aI20
aI21
aI22
aI23
aI24
aI25
aI26
aI27
aI28
aI29
aI30
aI31
aI32
aI33
aI34
aI35
aI36
aI37
aI38
aI39
aI40
aI41
aI42
aI43
aI44
aI45
aI46
aI47
aI48
aI49
aI50
aI51
aI52
aI53
aI54
aI55
aI56
aI57
aI58
aI59
aI60
aI61
aI62
aI63
aI64
aI65
aI66
aI67
aI68
aI69
aI70
aI71
aI72
aI73
aI74
aI75
aI76
aI77
aI78
aI79
aI80
aI81
aI82
aI83
aI84
aI85
aI86
aI87
aI88
aI89
aI90
aI91
aI92
aI93
aI94
aI95
aI96
aI97
aI98
aI99
aI100
aI101
aI102
aI103
aI104
aI105
aI106
aI107
aI108
aI109
aI110
aI111
aI112
aI113
aI114
aI115
aI116
aI117
aI118
aI119
aI120
aI121
aI122
aI123
aI124
aI125
aI126
aI127
aI128
aI129
aI130
aI131
aI132
aI133
aI134
aI135
aI136
aI137
aI138
aI139
aI140
aI141
aI142
aI143
aI144
aI145
aI146
aI147
aI148
aI149
aI150
aI151
aI152
aI153
aI154
aI155
aI156
aI157
aI158
aI159
aI160
aI161
aI162
aI163
aI164
aI165
aI166
aI167
aI168
aI169
aI170
aI171
aI172
aI173
aI174
aI175
aI176
aI177
aI178
aI179
aI180
aI181
aI182
aI183
aI184
aI185
aI186
aI187
aI188
aI189
aI190
aI191
aI192
aI193
aI194
aI195
aI196
aI197
aI198
aI199
aI200
asS'index'
p5
I0
sS'lpredict'
p6
cnumpy.core.multiarray
scalar
p7
(cnumpy
dtype
p8
(S'f8'
p9
I0
I1
tp10
Rp11
(I3
S'<'
p12
NNNI-1
I-1
I0
tp13
bS'\xdc\xee\xf0\x9e\xc7\xac\xab?'
p14
tp15
Rp16
sS'rpredict'
p17
F0.0
sS'_pre_conds'
p18
(lp19
sS'prt'
p20
NsS'cond'
p21
(ipyboost.conditions
TrueCondition
p22
(dp23
bsS'rchild'
p24
(lp25
sba(ipyboost.adtree
SplitterNode
p26
(dp27
g3
(lp28
sg5
I1
sg6
g7
(g11
S'>\x92q\x848\xa1\x95?'
p29
tp30
Rp31
sg17
g7
(g11
S'\xbf\xfe\n=\xb0\x97\xad\xbf'
p32
tp33
Rp34
sg18
(lp35
(ipyboost.conditions
TrueCondition
p36
(dp37
basg20
g1
sg21
(ipyboost.conditions
ThresholdCondition
p38
(dp39
g5
I6
sS'result'
p40
NsS'val'
p41
g7
(g11
S'\x00\x00\x00\x00\xb22\xe5?'
p42
tp43
Rp44
sbsg24
(lp45
sba(ipyboost.adtree
SplitterNode
p46
(dp47
g3
(lp48
sg5
I2
sg6
g7
(g11
S'\xffz\xfd\x92\x03y\xa1?'
p49
tp50
Rp51
sg17
g7
(g11
S'\t\xd8\xecq\xcf\xeb\x82\xbf'
p52
tp53
Rp54
sg18
(lp55
(ipyboost.conditions
TrueCondition
p56
(dp57
basg20
g1
sg21
(ipyboost.conditions
ThresholdCondition
p58
(dp59
g5
I7
sg40
Nsg41
g7
(g11
S'\x00\x00\x00p\x95\x95\xef\xbf'
p60
tp61
Rp62
sbsg24
(lp63
sba(ipyboost.adtree
SplitterNode
p64
(dp65
g3
(lp66
sg5
I3
sg6
g7
(g11
S"A\xf4\xbc\xf3'\xbb\x97\xbf"
p67
tp68
Rp69
sg17
g7
(g11
S'\x17*\xbe\x1f6\xd7\x8f?'
p70
tp71
Rp72
sg18
(lp73
(ipyboost.conditions
TrueCondition
p74
(dp75
basg20
g1
sg21
(ipyboost.conditions
ThresholdCondition
p76
(dp77
g5
I11
sg40
Nsg41
g7
(g11
S'\x00\x00\x00\x00\x071\xd8\xbf'
p78
tp79
Rp80
sbsg24
(lp81
sba(ipyboost.adtree
SplitterNode
p82
(dp83
g3
(lp84
sg5
I4
sg6
g7
(g11
S'w~W\xa1I\xe2\x96?'
p85
tp86
Rp87
sg17
g7
(g11
S'\x17\x97\x16\xf3\xae\xfe\x8a\xbf'
p88
tp89
Rp90
sg18
(lp91
(ipyboost.conditions
TrueCondition
p92
(dp93
basg20
g1
sg21
(ipyboost.conditions
ThresholdCondition
p94
(dp95
g5
I2
sg40
Nsg41
g7
(g11
S'\x00\x00\x00\xa0C5\xe0\xbf'
p96
tp97
Rp98
sbsg24
(lp99
sba(ipyboost.adtree
SplitterNode
p100
(dp101
g3
(lp102
sg5
I5
sg6
g7
(g11
S'\xecWW\xee\xe0\xea\x93\xbf'
p103
tp104
Rp105
sg17
g7
(g11
S'\x9aHm\xe1[\x07\xad?'
p106
tp107
Rp108
sg18
(lp109
(ipyboost.conditions
TrueCondition
p110
(dp111
basg20
g1
sg21
(ipyboost.conditions
ThresholdCondition
p112
(dp113
g5
I21
sg40
Nsg41
g7
(g11
S'\x00\x00\x00(\xb6\x10\xf0?'
p114
tp115
Rp116
sbsg24
(lp117
sba(ipyboost.adtree
SplitterNode
p118
(dp119
g3
(lp120
sg5
I6
sg6
g7
(g11
S'\x8c\x83\xa8\xcc8\xff\xa0\xbf'
p121
tp122
Rp123
sg17
g7
(g11
S'@iA\xbf<\xc4\x93?'
p124
tp125
Rp126
sg18
(lp127
(ipyboost.conditions
TrueCondition
p128
(dp129
basg20
g1
sg21
(ipyboost.conditions
ThresholdCondition
p130
(dp131
g5
I24
sg40
Nsg41
g7
(g11
S'\x00\x00\x00\xe0\x85\x9f\xea?'
p132
tp133
Rp134
sbsg24
(lp135
sba(ipyboost.adtree
SplitterNode
p136
(dp137
g3
(lp138
sg5
I7
sg6
g7
(g11
S'\x12"\xb9bS\xde\\?'
p139
tp140
Rp141
sg17
g7
(g11
S'\xdc%J\xe9\x80MS\xbf'
p142
tp143
Rp144
sg18
(lp145
(ipyboost.conditions
TrueCondition
p146
(dp147
basg20
g1
sg21
(ipyboost.conditions
ThresholdCondition
p148
(dp149
g5
I11
sg40
Nsg41
g7
(g11
S'\x00\x00\x00\x00\x071\xd8\xbf'
p150
tp151
Rp152
sbsg24
(lp153
sba(ipyboost.adtree
SplitterNode
p154
(dp155
g3
(lp156
sg5
I8
sg6
g7
(g11
S'\xc6#\x13\xfe>\xd0\x9e?'
p157
tp158
Rp159
sg17
g7
(g11
S'fcg)\xf7\xe7\x9b\xbf'
p160
tp161
Rp162
sg18
(lp163
(ipyboost.conditions
TrueCondition
p164
(dp165
basg20
g1
sg21
(ipyboost.conditions
ThresholdCondition
p166
(dp167
g5
I6
sg40
Nsg41
g7
(g11
S'\x00\x00\x00\x80G\xe2\xaa\xbf'
p168
tp169
Rp170
sbsg24
(lp171
sba(ipyboost.adtree
SplitterNode
p172
(dp173
g3
(lp174
sg5
I9
sg6
g7
(g11
S'F\xc8\xa9\x12g\xd7\x96?'
p175
tp176
Rp177
sg17
g7
(g11
S'\x85\x80\x0b\xad\x9b\xfe\xa3\xbf'
p178
tp179
Rp180
sg18
(lp181
(ipyboost.conditions
TrueCondition
p182
(dp183
basg20
g1
sg21
(ipyboost.conditions
ThresholdCondition
p184
(dp185
g5
I10
sg40
Nsg41
g7
(g11
S'\x00\x00\x00\x90\xf4;\xd5?'
p186
tp187
Rp188
sbsg24
(lp189
sba(ipyboost.adtree
SplitterNode
p190
(dp191
g3
(lp192
sg5
I10
sg6
g7
(g11
S'\x7fzzO\x8dM\x8f?'
p193
tp194
Rp195
sg17
g7
(g11
S'\xe2\xf7\x1b\xc5\x85H\x90\xbf'
p196
tp197
Rp198
sg18
(lp199
(ipyboost.conditions
TrueCondition
p200
(dp201
basg20
g1
sg21
(ipyboost.conditions
ThresholdCondition
p202
(dp203
g5
I26
sg40
Nsg41
g7
(g11
S'\x00\x00\x00\x10\x81\x10\xee?'
p204
tp205
Rp206
sbsg24
(lp207
sba(ipyboost.adtree
SplitterNode
p208
(dp209
g3
(lp210
sg5
I11
sg6
g7
(g11
S'\xf0\xb9?\x0cU|\x9b?'
p211
tp212
Rp213
sg17
g7
(g11
S'\xa4\xe6~\xb9yl\xac\xbf'
p214
tp215
Rp216
sg18
(lp217
(ipyboost.conditions
TrueCondition
p218
(dp219
basg20
g1
sg21
(ipyboost.conditions
ThresholdCondition
p220
(dp221
g5
I16
sg40
Nsg41
g7
(g11
S'\x00\x00\x00\x80\xc3b\xf4?'
p222
tp223
Rp224
sbsg24
(lp225
sba(ipyboost.adtree
SplitterNode
p226
(dp227
g3
(lp228
sg5
I12
sg6
g7
(g11
S'\x84(}\xa5\xb7P\xa5\xbf'
p229
tp230
Rp231
sg17
g7
(g11
S'H\xd6\xa4@\x8a\x00\x92?'
p232
tp233
Rp234
sg18
(lp235
(ipyboost.conditions
TrueCondition
p236
(dp237
basg20
g1
sg21
(ipyboost.conditions
ThresholdCondition
p238
(dp239
g5
I23
sg40
Nsg41
g7
(g11
S'\x00\x00\x00 \x12\x92\xef?'
p240
tp241
Rp242
sbsg24
(lp243
sba(ipyboost.adtree
SplitterNode
p244
(dp245
g3
(lp246
sg5
I13
sg6
g7
(g11
S'\x1c\x92K\x10\x16\xa1\xa2?'
p247
tp248
Rp249
sg17
g7
(g11
S'\x00wk\x0f\x06\xce\xb1\xbf'
p250
tp251
Rp252
sg18
(lp253
(ipyboost.conditions
TrueCondition
p254
(dp255
basg20
g1
sg21
(ipyboost.conditions
ThresholdCondition
p256
(dp257
g5
I20
sg40
Nsg41
g7
(g11
S'\x00\x00\x00 \xd1\xd0\xe8?'
p258
tp259
Rp260
sbsg24
(lp261
sba(ipyboost.adtree
SplitterNode
p262
(dp263
g3
(lp264
sg5
I14
sg6
g7
(g11
S'\xe3+\xe16\xa4V\x8b\xbf'
p265
tp266
Rp267
sg17
g7
(g11
S'v0\n\x15\xb8h\x96?'
p268
tp269
Rp270
sg18
(lp271
(ipyboost.conditions
TrueCondition
p272
(dp273
basg20
g1
sg21
(ipyboost.conditions
ThresholdCondition
p274
(dp275
g5
I2
sg40
Nsg41
g7
(g11
S'\x00\x00\x00 S\x9b\xda?'
p276
tp277
Rp278
sbsg24
(lp279
sba(ipyboost.adtree
SplitterNode
p280
(dp281
g3
(lp282
sg5
I15
sg6
g7
(g11
S'\xb7\xdeCZ\x06\x8e\xc9\xbf'
p283
tp284
Rp285
sg17
g7
(g11
S'\xd0(\x96\xcb5\xe7\xb2?'
p286
tp287
Rp288
sg18
(lp289
(ipyboost.conditions
TrueCondition
p290
(dp291
basg20
g1
sg21
(ipyboost.conditions
ThresholdCondition
p292
(dp293
g5
I26
sg40
Nsg41
g7
(g11
S'\x00\x00\x00\x00\xebH\xea?'
p294
tp295
Rp296
sbsg24
(lp297
sba(ipyboost.adtree
SplitterNode
p298
(dp299
g3
(lp300
sg5
I16
sg6
g7
(g11
S'}\x8e\x8c\x13\xf1\x1f\xb0?'
p301
tp302
Rp303
sg17
g7
(g11
S'\x8b\xe7\xacf\xacU\xa4\xbf'
p304
tp305
Rp306
sg18
(lp307
(ipyboost.conditions
TrueCondition
p308
(dp309
basg20
g1
sg21
(ipyboost.conditions
ThresholdCondition
p310
(dp311
g5
I3
sg40
Nsg41
g7
(g11
S'\x00\x00\x004\xf4\xfe\xe7?'
p312
tp313
Rp314
sbsg24
(lp315
sba(ipyboost.adtree
SplitterNode
p316
(dp317
g3
(lp318
sg5
I17
sg6
g7
(g11
S'%\r\xca[\nt\x8e\xbf'
p319
tp320
Rp321
sg17
g7
(g11
S'ZI4s\xd9\x0e\x90?'
p322
tp323
Rp324
sg18
(lp325
(ipyboost.conditions
TrueCondition
p326
(dp327
basg20
g1
sg21
(ipyboost.conditions
ThresholdCondition
p328
(dp329
g5
I10
sg40
Nsg41
g7
(g11
S'\x00\x00\x00\x00\xf5\xfe\x87?'
p330
tp331
Rp332
sbsg24
(lp333
sba(ipyboost.adtree
SplitterNode
p334
(dp335
g3
(lp336
sg5
I18
sg6
g7
(g11
S'\xf4\x16\xb9#omz\xbf'
p337
tp338
Rp339
sg17
g7
(g11
S'\xd0\xe0jnioc?'
p340
tp341
Rp342
sg18
(lp343
(ipyboost.conditions
TrueCondition
p344
(dp345
basg20
g1
sg21
(ipyboost.conditions
ThresholdCondition
p346
(dp347
g5
I26
sg40
Nsg41
g7
(g11
S'\x00\x00\x00\x00\xebH\xea?'
p348
tp349
Rp350
sbsg24
(lp351
sba(ipyboost.adtree
SplitterNode
p352
(dp353
g3
(lp354
sg5
I19
sg6
g7
(g11
S'\xad\xec:\xe8<\xaf\x8d?'
p355
tp356
Rp357
sg17
g7
(g11
S'\xa9#\x83a\xc3\xaf\x8d\xbf'
p358
tp359
Rp360
sg18
(lp361
(ipyboost.conditions
TrueCondition
p362
(dp363
basg20
g1
sg21
(ipyboost.conditions
ThresholdCondition
p364
(dp365
g5
I1
sg40
Nsg41
g7
(g11
S'\x00\x00\x00\x00\x15u\xaa\xbf'
p366
tp367
Rp368
sbsg24
(lp369
sba(ipyboost.adtree
SplitterNode
p370
(dp371
g3
(lp372
sg5
I20
sg6
g7
(g11
S'\xddB\xceU\xc5;\\?'
p373
tp374
Rp375
sg17
g7
(g11
S'\xeaC|Q\xd7\x96t\xbf'
p376
tp377
Rp378
sg18
(lp379
(ipyboost.conditions
TrueCondition
p380
(dp381
basg20
g1
sg21
(ipyboost.conditions
ThresholdCondition
p382
(dp383
g5
I21
sg40
Nsg41
g7
(g11
S'\x00\x00\x00(\xb6\x10\xf0?'
p384
tp385
Rp386
sbsg24
(lp387
sba(ipyboost.adtree
SplitterNode
p388
(dp389
g3
(lp390
sg5
I21
sg6
g7
(g11
S'o\xf3\x90\xc4!2\xa2?'
p391
tp392
Rp393
sg17
g7
(g11
S'\x8b\x8d-\x9e?\xc7\xb2\xbf'
p394
tp395
Rp396
sg18
(lp397
(ipyboost.conditions
TrueCondition
p398
(dp399
basg20
g1
sg21
(ipyboost.conditions
ThresholdCondition
p400
(dp401
g5
I7
sg40
Nsg41
g7
(g11
S'\x00\x00\x00\xc0\xfa\xba\xe3?'
p402
tp403
Rp404
sbsg24
(lp405
sba(ipyboost.adtree
SplitterNode
p406
(dp407
g3
(lp408
sg5
I22
sg6
g7
(g11
S'\xcc-\x05ZpY#?'
p409
tp410
Rp411
sg17
g7
(g11
S'\x00\xe9V\x7f\xa8$!\xbf'
p412
tp413
Rp414
sg18
(lp415
(ipyboost.conditions
TrueCondition
p416
(dp417
basg20
g1
sg21
(ipyboost.conditions
ThresholdCondition
p418
(dp419
g5
I6
sg40
Nsg41
g7
(g11
S'\x00\x00\x00\x80G\xe2\xaa\xbf'
p420
tp421
Rp422
sbsg24
(lp423
sba(ipyboost.adtree
SplitterNode
p424
(dp425
g3
(lp426
sg5
I23
sg6
g7
(g11
S'"\x90\xcc(\xb6\xf0\x83\xbf'
p427
tp428
Rp429
sg17
g7
(g11
S'\xee\x98\x0f\xa4s\xbf\x8b?'
p430
tp431
Rp432
sg18
(lp433
(ipyboost.conditions
TrueCondition
p434
(dp435
basg20
g1
sg21
(ipyboost.conditions
ThresholdCondition
p436
(dp437
g5
I14
sg40
Nsg41
g7
(g11
S'\x00\x00\x00\x00#]\xcf?'
p438
tp439
Rp440
sbsg24
(lp441
sba(ipyboost.adtree
SplitterNode
p442
(dp443
g3
(lp444
sg5
I24
sg6
g7
(g11
S'\xbfu\xfb\x94\x11\xb6z\xbf'
p445
tp446
Rp447
sg17
g7
(g11
S'^6\xe7\xf0R)\x90?'
p448
tp449
Rp450
sg18
(lp451
(ipyboost.conditions
TrueCondition
p452
(dp453
basg20
g1
sg21
(ipyboost.conditions
ThresholdCondition
p454
(dp455
g5
I13
sg40
Nsg41
g7
(g11
S'\x00\x00\x00\x88\xb8\x03\xf2?'
p456
tp457
Rp458
sbsg24
(lp459
sba(ipyboost.adtree
SplitterNode
p460
(dp461
g3
(lp462
sg5
I25
sg6
g7
(g11
S'\x94\x92(:\xc1\xa1\xb2?'
p463
tp464
Rp465
sg17
g7
(g11
S'\xd5=4-xm\xa2\xbf'
p466
tp467
Rp468
sg18
(lp469
(ipyboost.conditions
TrueCondition
p470
(dp471
basg20
g1
sg21
(ipyboost.conditions
ThresholdCondition
p472
(dp473
g5
I19
sg40
Nsg41
g7
(g11
S'\x00\x00\x00h}\xb9\xe2\xbf'
p474
tp475
Rp476
sbsg24
(lp477
sba(ipyboost.adtree
SplitterNode
p478
(dp479
g3
(lp480
sg5
I26
sg6
g7
(g11
S't\xb0\x00Z\xa5,\xb2?'
p481
tp482
Rp483
sg17
g7
(g11
S'\x81\x11\x86\xf1\x96w\xb2\xbf'
p484
tp485
Rp486
sg18
(lp487
(ipyboost.conditions
TrueCondition
p488
(dp489
basg20
g1
sg21
(ipyboost.conditions
ThresholdCondition
p490
(dp491
g5
I26
sg40
Nsg41
g7
(g11
S'\x00\x00\x00\x10\x81\x10\xee?'
p492
tp493
Rp494
sbsg24
(lp495
sba(ipyboost.adtree
SplitterNode
p496
(dp497
g3
(lp498
sg5
I27
sg6
g7
(g11
S'\x04\xce9\xff\x86\xa6\x87\xbf'
p499
tp500
Rp501
sg17
g7
(g11
S'\x88\x1b\xe09\xda\xa5\x8f?'
p502
tp503
Rp504
sg18
(lp505
(ipyboost.conditions
TrueCondition
p506
(dp507
basg20
g1
sg21
(ipyboost.conditions
ThresholdCondition
p508
(dp509
g5
I8
sg40
Nsg41
g7
(g11
S'\x00\x00\x00\xa0\xb0\x13\xfa?'
p510
tp511
Rp512
sbsg24
(lp513
sba(ipyboost.adtree
SplitterNode
p514
(dp515
g3
(lp516
sg5
I28
sg6
g7
(g11
S'\x00\x00\x00\x00\x00\x00\x00\x00'
p517
tp518
Rp519
sg17
g7
(g11
S'\xfe\xff\xff\xff\xff\xff\xb7<'
p520
tp521
Rp522
sg18
(lp523
(ipyboost.conditions
TrueCondition
p524
(dp525
basg20
g1
sg21
(ipyboost.conditions
ThresholdCondition
p526
(dp527
g5
I8
sg40
Nsg41
g7
(g11
S'\x00\x00\x00\xc0ub\xf1?'
p528
tp529
Rp530
sbsg24
(lp531
sba(ipyboost.adtree
SplitterNode
p532
(dp533
g3
(lp534
sg5
I29
sg6
g7
(g11
S'\xbf\xe3)\x12xQm?'
p535
tp536
Rp537
sg17
g7
(g11
S'\x01\xaf\xec\xec\x04\xb2~\xbf'
p538
tp539
Rp540
sg18
(lp541
(ipyboost.conditions
TrueCondition
p542
(dp543
basg20
g1
sg21
(ipyboost.conditions
ThresholdCondition
p544
(dp545
g5
I7
sg40
Nsg41
g7
(g11
S'\x00\x00\x00\xc0\xfa\xba\xe3?'
p546
tp547
Rp548
sbsg24
(lp549
sba(ipyboost.adtree
SplitterNode
p550
(dp551
g3
(lp552
sg5
I30
sg6
g7
(g11
S'\xba{\xec\xec\xe0J\xa9\xbf'
p553
tp554
Rp555
sg17
g7
(g11
S'\xe6Iw\xfd\x03\xb0\xa0?'
p556
tp557
Rp558
sg18
(lp559
(ipyboost.conditions
TrueCondition
p560
(dp561
basg20
g1
sg21
(ipyboost.conditions
ThresholdCondition
p562
(dp563
g5
I26
sg40
Nsg41
g7
(g11
S'\x00\x00\x00 QO\xec?'
p564
tp565
Rp566
sbsg24
(lp567
sba(ipyboost.adtree
SplitterNode
p568
(dp569
g3
(lp570
sg5
I31
sg6
g7
(g11
S'\xacb\xbc\xc9N!\xcb\xbf'
p571
tp572
Rp573
sg17
g7
(g11
S'<\xad\x00\x88V\x92\x91?'
p574
tp575
Rp576
sg18
(lp577
(ipyboost.conditions
TrueCondition
p578
(dp579
basg20
g1
sg21
(ipyboost.conditions
ThresholdCondition
p580
(dp581
g5
I18
sg40
Nsg41
g7
(g11
S'\x00\x00\x00\x90\xed\x0b\xf7\xbf'
p582
tp583
Rp584
sbsg24
(lp585
sba(ipyboost.adtree
SplitterNode
p586
(dp587
g3
(lp588
sg5
I32
sg6
g7
(g11
S'h\xeap\x94\xc7\xb1\xc9?'
p589
tp590
Rp591
sg17
g7
(g11
S'j\xa3n\xc2\x93\xaa\xb1\xbf'
p592
tp593
Rp594
sg18
(lp595
(ipyboost.conditions
TrueCondition
p596
(dp597
basg20
g1
sg21
(ipyboost.conditions
ThresholdCondition
p598
(dp599
g5
I24
sg40
Nsg41
g7
(g11
S'\x00\x00\x00\x10LV\xe8?'
p600
tp601
Rp602
sbsg24
(lp603
sba(ipyboost.adtree
SplitterNode
p604
(dp605
g3
(lp606
sg5
I33
sg6
g7
(g11
S'\xa8H\xb6\x0c\xee7\xa9\xbf'
p607
tp608
Rp609
sg17
g7
(g11
S'\xf0J\xd6\xbd\xc6Z\xa0?'
p610
tp611
Rp612
sg18
(lp613
(ipyboost.conditions
TrueCondition
p614
(dp615
basg20
g1
sg21
(ipyboost.conditions
ThresholdCondition
p616
(dp617
g5
I26
sg40
Nsg41
g7
(g11
S'\x00\x00\x00 QO\xec?'
p618
tp619
Rp620
sbsg24
(lp621
sba(ipyboost.adtree
SplitterNode
p622
(dp623
g3
(lp624
sg5
I34
sg6
g7
(g11
S'!\xdc\x84\xa4n\xcb\xb1?'
p625
tp626
Rp627
sg17
g7
(g11
S'dx\xce*+Z\x9c\xbf'
p628
tp629
Rp630
sg18
(lp631
(ipyboost.conditions
TrueCondition
p632
(dp633
basg20
g1
sg21
(ipyboost.conditions
ThresholdCondition
p634
(dp635
g5
I27
sg40
Nsg41
g7
(g11
S'\x00\x00\x00\xf0\x87\xe0\xe8?'
p636
tp637
Rp638
sbsg24
(lp639
sba(ipyboost.adtree
SplitterNode
p640
(dp641
g3
(lp642
sg5
I35
sg6
g7
(g11
S'\xfe\x12\x1f\x98\xafG\xab\xbf'
p643
tp644
Rp645
sg17
g7
(g11
S'\x19\xa2\xcf\x8eM\x1b\xb2?'
p646
tp647
Rp648
sg18
(lp649
(ipyboost.conditions
TrueCondition
p650
(dp651
basg20
g1
sg21
(ipyboost.conditions
ThresholdCondition
p652
(dp653
g5
I15
sg40
Nsg41
g7
(g11
S'\x00\x00\x00 \xde|\xd2?'
p654
tp655
Rp656
sbsg24
(lp657
sba(ipyboost.adtree
SplitterNode
p658
(dp659
g3
(lp660
sg5
I36
sg6
g7
(g11
S'\xd9\x0bQ\xab\xfe\xaa\xb4\xbf'
p661
tp662
Rp663
sg17
g7
(g11
S';\x01!!M\xb0\xbc?'
p664
tp665
Rp666
sg18
(lp667
(ipyboost.conditions
TrueCondition
p668
(dp669
basg20
g1
sg21
(ipyboost.conditions
ThresholdCondition
p670
(dp671
g5
I5
sg40
Nsg41
g7
(g11
S'\x00\x00\x00\xb0I\xa0\xee?'
p672
tp673
Rp674
sbsg24
(lp675
sba(ipyboost.adtree
SplitterNode
p676
(dp677
g3
(lp678
sg5
I37
sg6
g7
(g11
S'z\xbb w\xaa\xf0\x14?'
p679
tp680
Rp681
sg17
g7
(g11
S'\xb7|\xd1Sq\x9e\x1c\xbf'
p682
tp683
Rp684
sg18
(lp685
(ipyboost.conditions
TrueCondition
p686
(dp687
basg20
g1
sg21
(ipyboost.conditions
ThresholdCondition
p688
(dp689
g5
I4
sg40
Nsg41
g7
(g11
S'\x00\x00\x00\x00\xb4\x81\xca?'
p690
tp691
Rp692
sbsg24
(lp693
sba(ipyboost.adtree
SplitterNode
p694
(dp695
g3
(lp696
sg5
I38
sg6
g7
(g11
S'\xc2ka<)H\x8d?'
p697
tp698
Rp699
sg17
g7
(g11
S'\x98\xaf\x9e\xbfgs\x8d\xbf'
p700
tp701
Rp702
sg18
(lp703
(ipyboost.conditions
TrueCondition
p704
(dp705
basg20
g1
sg21
(ipyboost.conditions
ThresholdCondition
p706
(dp707
g5
I1
sg40
Nsg41
g7
(g11
S'\x00\x00\x00\x00\x15u\xaa\xbf'
p708
tp709
Rp710
sbsg24
(lp711
sba(ipyboost.adtree
SplitterNode
p712
(dp713
g3
(lp714
sg5
I39
sg6
g7
(g11
S'\x13\xeb\xe3\xfc7\x87l?'
p715
tp716
Rp717
sg17
g7
(g11
S'\xb5\xad-,\xac\r\x83\xbf'
p718
tp719
Rp720
sg18
(lp721
(ipyboost.conditions
TrueCondition
p722
(dp723
basg20
g1
sg21
(ipyboost.conditions
ThresholdCondition
p724
(dp725
g5
I20
sg40
Nsg41
g7
(g11
S'\x00\x00\x00 \xd1\xd0\xf8?'
p726
tp727
Rp728
sbsg24
(lp729
sba(ipyboost.adtree
SplitterNode
p730
(dp731
g3
(lp732
sg5
I40
sg6
g7
(g11
S'\x1f\xe1\xb0W\x10\x81\x8a\xbf'
p733
tp734
Rp735
sg17
g7
(g11
S'M\xda\x86\x0er7\x92?'
p736
tp737
Rp738
sg18
(lp739
(ipyboost.conditions
TrueCondition
p740
(dp741
basg20
g1
sg21
(ipyboost.conditions
ThresholdCondition
p742
(dp743
g5
I9
sg40
Nsg41
g7
(g11
S'\x00\x00\x00H\xea\x06\xf0?'
p744
tp745
Rp746
sbsg24
(lp747
sba(ipyboost.adtree
SplitterNode
p748
(dp749
g3
(lp750
sg5
I41
sg6
g7
(g11
S'\xab\xa0S\xca\x85\x8b\xc2?'
p751
tp752
Rp753
sg17
g7
(g11
S'\x1e\x8d\x88p\xe9"\xb4\xbf'
p754
tp755
Rp756
sg18
(lp757
(ipyboost.conditions
TrueCondition
p758
(dp759
basg20
g1
sg21
(ipyboost.conditions
ThresholdCondition
p760
(dp761
g5
I27
sg40
Nsg41
g7
(g11
S'\x00\x00\x00px\xc6\xe9?'
p762
tp763
Rp764
sbsg24
(lp765
sba(ipyboost.adtree
SplitterNode
p766
(dp767
g3
(lp768
sg5
I42
sg6
g7
(g11
S'$\xfa\xb6<\xa5yp?'
p769
tp770
Rp771
sg17
g7
(g11
S'\xde;Sz\xfeC\x81\xbf'
p772
tp773
Rp774
sg18
(lp775
(ipyboost.conditions
TrueCondition
p776
(dp777
basg20
g1
sg21
(ipyboost.conditions
ThresholdCondition
p778
(dp779
g5
I7
sg40
Nsg41
g7
(g11
S'\x00\x00\x00\xc0\xfa\xba\xe3?'
p780
tp781
Rp782
sbsg24
(lp783
sba(ipyboost.adtree
SplitterNode
p784
(dp785
g3
(lp786
sg5
I43
sg6
g7
(g11
S'\x85K\xc0\xe01\xb2\xa4\xbf'
p787
tp788
Rp789
sg17
g7
(g11
S'j\x08\x1a1\xdb\xc3\x81?'
p790
tp791
Rp792
sg18
(lp793
(ipyboost.conditions
TrueCondition
p794
(dp795
basg20
g1
sg21
(ipyboost.conditions
ThresholdCondition
p796
(dp797
g5
I18
sg40
Nsg41
g7
(g11
S'\x00\x00\x00 \x7f5\xef\xbf'
p798
tp799
Rp800
sbsg24
(lp801
sba(ipyboost.adtree
SplitterNode
p802
(dp803
g3
(lp804
sg5
I44
sg6
g7
(g11
S'\xea\x87\x8c\x07e\xac\x86?'
p805
tp806
Rp807
sg17
g7
(g11
S'\xe4x\xf9)\x989\x9a\xbf'
p808
tp809
Rp810
sg18
(lp811
(ipyboost.conditions
TrueCondition
p812
(dp813
basg20
g1
sg21
(ipyboost.conditions
ThresholdCondition
p814
(dp815
g5
I15
sg40
Nsg41
g7
(g11
S'\x00\x00\x00h4&\xe3?'
p816
tp817
Rp818
sbsg24
(lp819
sba(ipyboost.adtree
SplitterNode
p820
(dp821
g3
(lp822
sg5
I45
sg6
g7
(g11
S's \xe3\xfc\xd7\t\x81\xbf'
p823
tp824
Rp825
sg17
g7
(g11
S'\x85\xb5\r\x98\x1c~\x86?'
p826
tp827
Rp828
sg18
(lp829
(ipyboost.conditions
TrueCondition
p830
(dp831
basg20
g1
sg21
(ipyboost.conditions
ThresholdCondition
p832
(dp833
g5
I15
sg40
Nsg41
g7
(g11
S'\x00\x00\x00 \xde|\xd2?'
p834
tp835
Rp836
sbsg24
(lp837
sba(ipyboost.adtree
SplitterNode
p838
(dp839
g3
(lp840
sg5
I46
sg6
g7
(g11
S'\x81\xdat\xd0\xc9\xf0\x81?'
p841
tp842
Rp843
sg17
g7
(g11
S'n\x15I~p?\x89\xbf'
p844
tp845
Rp846
sg18
(lp847
(ipyboost.conditions
TrueCondition
p848
(dp849
basg20
g1
sg21
(ipyboost.conditions
ThresholdCondition
p850
(dp851
g5
I14
sg40
Nsg41
g7
(g11
S'\x00\x00\x00\x00#]\xcf?'
p852
tp853
Rp854
sbsg24
(lp855
sba(ipyboost.adtree
SplitterNode
p856
(dp857
g3
(lp858
sg5
I47
sg6
g7
(g11
S'\xc3\x14eh\xde\xd1>?'
p859
tp860
Rp861
sg17
g7
(g11
S'\xeaGh\x8aq\xb40\xbf'
p862
tp863
Rp864
sg18
(lp865
(ipyboost.conditions
TrueCondition
p866
(dp867
basg20
g1
sg21
(ipyboost.conditions
ThresholdCondition
p868
(dp869
g5
I27
sg40
Nsg41
g7
(g11
S'\x00\x00\x00px\xc6\xe9?'
p870
tp871
Rp872
sbsg24
(lp873
sba(ipyboost.adtree
SplitterNode
p874
(dp875
g3
(lp876
sg5
I48
sg6
g7
(g11
S'\x1caY\x9b1\xad\x9d\xbf'
p877
tp878
Rp879
sg17
g7
(g11
S'\x83\x97j\x87-\xb6\x88?'
p880
tp881
Rp882
sg18
(lp883
(ipyboost.conditions
TrueCondition
p884
(dp885
basg20
g1
sg21
(ipyboost.conditions
ThresholdCondition
p886
(dp887
g5
I23
sg40
Nsg41
g7
(g11
S'\x00\x00\x00 \x12\x92\xef?'
p888
tp889
Rp890
sbsg24
(lp891
sba(ipyboost.adtree
SplitterNode
p892
(dp893
g3
(lp894
sg5
I49
sg6
g7
(g11
S'\x0b\xd4/\x00w\x97??'
p895
tp896
Rp897
sg17
g7
(g11
S'\xf9[\x9f\x0f\xbb\x8fP\xbf'
p898
tp899
Rp900
sg18
(lp901
(ipyboost.conditions
TrueCondition
p902
(dp903
basg20
g1
sg21
(ipyboost.conditions
ThresholdCondition
p904
(dp905
g5
I7
sg40
Nsg41
g7
(g11
S'\x00\x00\x00\xc0\xfa\xba\xe3?'
p906
tp907
Rp908
sbsg24
(lp909
sba(ipyboost.adtree
SplitterNode
p910
(dp911
g3
(lp912
sg5
I50
sg6
g7
(g11
S'\x8f\x86\xb7\xe6\xd1\xc4<?'
p913
tp914
Rp915
sg17
g7
(g11
S'\xa9iI\x9d\x047D\xbf'
p916
tp917
Rp918
sg18
(lp919
(ipyboost.conditions
TrueCondition
p920
(dp921
basg20
g1
sg21
(ipyboost.conditions
ThresholdCondition
p922
(dp923
g5
I14
sg40
Nsg41
g7
(g11
S'\x00\x00\x00\x00#]\xcf?'
p924
tp925
Rp926
sbsg24
(lp927
sba(ipyboost.adtree
SplitterNode
p928
(dp929
g3
(lp930
sg5
I51
sg6
g7
(g11
S'\x99\xe2\xae\xd8\x10\tv\xbf'
p931
tp932
Rp933
sg17
g7
(g11
S'*\xbfWd\xd9\x03v?'
p934
tp935
Rp936
sg18
(lp937
(ipyboost.conditions
TrueCondition
p938
(dp939
basg20
g1
sg21
(ipyboost.conditions
ThresholdCondition
p940
(dp941
g5
I1
sg40
Nsg41
g7
(g11
S'\x00\x00\x00\x00\x15u\xaa\xbf'
p942
tp943
Rp944
sbsg24
(lp945
sba(ipyboost.adtree
SplitterNode
p946
(dp947
g3
(lp948
sg5
I52
sg6
g7
(g11
S'A\r\xc0\x8c\xcf\xb8\x8a\xbf'
p949
tp950
Rp951
sg17
g7
(g11
S'\xda\x9e\xbe\xc0\xc1$\xa0?'
p952
tp953
Rp954
sg18
(lp955
(ipyboost.conditions
TrueCondition
p956
(dp957
basg20
g1
sg21
(ipyboost.conditions
ThresholdCondition
p958
(dp959
g5
I13
sg40
Nsg41
g7
(g11
S'\x00\x00\x00\x88\xb8\x03\xf2?'
p960
tp961
Rp962
sbsg24
(lp963
sba(ipyboost.adtree
SplitterNode
p964
(dp965
g3
(lp966
sg5
I53
sg6
g7
(g11
S'$(\x1a\xc5p\xe1\xb1?'
p967
tp968
Rp969
sg17
g7
(g11
S'\xda\x99\x8b\x10p)\xb2\xbf'
p970
tp971
Rp972
sg18
(lp973
(ipyboost.conditions
TrueCondition
p974
(dp975
basg20
g1
sg21
(ipyboost.conditions
ThresholdCondition
p976
(dp977
g5
I3
sg40
Nsg41
g7
(g11
S'\x00\x00\x00P\x025\xed?'
p978
tp979
Rp980
sbsg24
(lp981
sba(ipyboost.adtree
SplitterNode
p982
(dp983
g3
(lp984
sg5
I54
sg6
g7
(g11
S'\x04\xcao\xf0\x85om\xbf'
p985
tp986
Rp987
sg17
g7
(g11
S'\x14{\x9e\xc7\x0c\x19o?'
p988
tp989
Rp990
sg18
(lp991
(ipyboost.conditions
TrueCondition
p992
(dp993
basg20
g1
sg21
(ipyboost.conditions
ThresholdCondition
p994
(dp995
g5
I10
sg40
Nsg41
g7
(g11
S'\x00\x00\x00\x00\xf5\xfe\x87?'
p996
tp997
Rp998
sbsg24
(lp999
sba(ipyboost.adtree
SplitterNode
p1000
(dp1001
g3
(lp1002
sg5
I55
sg6
g7
(g11
S"\xbb\xd4'\x9e\x05\xe8k?"
p1003
tp1004
Rp1005
sg17
g7
(g11
S'\x97\xd6\x06t\xf4.\x80\xbf'
p1006
tp1007
Rp1008
sg18
(lp1009
(ipyboost.conditions
TrueCondition
p1010
(dp1011
basg20
g1
sg21
(ipyboost.conditions
ThresholdCondition
p1012
(dp1013
g5
I15
sg40
Nsg41
g7
(g11
S'\x00\x00\x00h4&\xe3?'
p1014
tp1015
Rp1016
sbsg24
(lp1017
sba(ipyboost.adtree
SplitterNode
p1018
(dp1019
g3
(lp1020
sg5
I56
sg6
g7
(g11
S'\xe8A\x8a\x18\x05\xbc\x8f?'
p1021
tp1022
Rp1023
sg17
g7
(g11
S'\x17\x86\xc7\xfb\x017\x8c\xbf'
p1024
tp1025
Rp1026
sg18
(lp1027
(ipyboost.conditions
TrueCondition
p1028
(dp1029
basg20
g1
sg21
(ipyboost.conditions
ThresholdCondition
p1030
(dp1031
g5
I6
sg40
Nsg41
g7
(g11
S'\x00\x00\x00\x80G\xe2\xaa\xbf'
p1032
tp1033
Rp1034
sbsg24
(lp1035
sba(ipyboost.adtree
SplitterNode
p1036
(dp1037
g3
(lp1038
sg5
I57
sg6
g7
(g11
S'\x11o\x9et\xdf\x93\x96\xbf'
p1039
tp1040
Rp1041
sg17
g7
(g11
S'\x04w.N\xa7i\x93?'
p1042
tp1043
Rp1044
sg18
(lp1045
(ipyboost.conditions
TrueCondition
p1046
(dp1047
basg20
g1
sg21
(ipyboost.conditions
ThresholdCondition
p1048
(dp1049
g5
I8
sg40
Nsg41
g7
(g11
S'\x00\x00\x00\xc0ub\xe1?'
p1050
tp1051
Rp1052
sbsg24
(lp1053
sba(ipyboost.adtree
SplitterNode
p1054
(dp1055
g3
(lp1056
sg5
I58
sg6
g7
(g11
S'6\x88\xfc\x11R\x01\xa8\xbf'
p1057
tp1058
Rp1059
sg17
g7
(g11
S'\xe9\xc3\xd4\xca\xd1i\x8a?'
p1060
tp1061
Rp1062
sg18
(lp1063
(ipyboost.conditions
TrueCondition
p1064
(dp1065
basg20
g1
sg21
(ipyboost.conditions
ThresholdCondition
p1066
(dp1067
g5
I15
sg40
Nsg41
g7
(g11
S'\x00\x00\x000@R\xf0\xbf'
p1068
tp1069
Rp1070
sbsg24
(lp1071
sba(ipyboost.adtree
SplitterNode
p1072
(dp1073
g3
(lp1074
sg5
I59
sg6
g7
(g11
S'\xc6p\n\xdd]5h?'
p1075
tp1076
Rp1077
sg17
g7
(g11
S'r\xecR\x8f\xb7kt\xbf'
p1078
tp1079
Rp1080
sg18
(lp1081
(ipyboost.conditions
TrueCondition
p1082
(dp1083
basg20
g1
sg21
(ipyboost.conditions
ThresholdCondition
p1084
(dp1085
g5
I4
sg40
Nsg41
g7
(g11
S'\x00\x00\x00\xc0\x0f\xd0\xd9?'
p1086
tp1087
Rp1088
sbsg24
(lp1089
sba(ipyboost.adtree
SplitterNode
p1090
(dp1091
g3
(lp1092
sg5
I60
sg6
g7
(g11
S'\x15\xf3L\x1dce\x91\xbf'
p1093
tp1094
Rp1095
sg17
g7
(g11
S'l\xa2\xab\x08X"\xa9?'
p1096
tp1097
Rp1098
sg18
(lp1099
(ipyboost.conditions
TrueCondition
p1100
(dp1101
basg20
g1
sg21
(ipyboost.conditions
ThresholdCondition
p1102
(dp1103
g5
I21
sg40
Nsg41
g7
(g11
S'\x00\x00\x00(\xb6\x10\xf0?'
p1104
tp1105
Rp1106
sbsg24
(lp1107
sba(ipyboost.adtree
SplitterNode
p1108
(dp1109
g3
(lp1110
sg5
I61
sg6
g7
(g11
S'w\x03PuEA[?'
p1111
tp1112
Rp1113
sg17
g7
(g11
S'\x90y\xd1\x83\xd9\xa3X\xbf'
p1114
tp1115
Rp1116
sg18
(lp1117
(ipyboost.conditions
TrueCondition
p1118
(dp1119
basg20
g1
sg21
(ipyboost.conditions
ThresholdCondition
p1120
(dp1121
g5
I7
sg40
Nsg41
g7
(g11
S'\x00\x00\x00\x00>c\xa3\xbf'
p1122
tp1123
Rp1124
sbsg24
(lp1125
sba(ipyboost.adtree
SplitterNode
p1126
(dp1127
g3
(lp1128
sg5
I62
sg6
g7
(g11
S'\xc0\x81\x7fPV\xa3\xb1?'
p1129
tp1130
Rp1131
sg17
g7
(g11
S'K\xaeJ\xb6\x0e\x17\x99\xbf'
p1132
tp1133
Rp1134
sg18
(lp1135
(ipyboost.conditions
TrueCondition
p1136
(dp1137
basg20
g1
sg21
(ipyboost.conditions
ThresholdCondition
p1138
(dp1139
g5
I22
sg40
Nsg41
g7
(g11
S'\x00\x00\x00P\xb4\xff\xea?'
p1140
tp1141
Rp1142
sbsg24
(lp1143
sba(ipyboost.adtree
SplitterNode
p1144
(dp1145
g3
(lp1146
sg5
I63
sg6
g7
(g11
S'\x88tN\xab\x9b\x03s\xbf'
p1147
tp1148
Rp1149
sg17
g7
(g11
S'1\x1aPi(i\x8b?'
p1150
tp1151
Rp1152
sg18
(lp1153
(ipyboost.conditions
TrueCondition
p1154
(dp1155
basg20
g1
sg21
(ipyboost.conditions
ThresholdCondition
p1156
(dp1157
g5
I21
sg40
Nsg41
g7
(g11
S'\x00\x00\x00(\xb6\x10\xf0?'
p1158
tp1159
Rp1160
sbsg24
(lp1161
sba(ipyboost.adtree
SplitterNode
p1162
(dp1163
g3
(lp1164
sg5
I64
sg6
g7
(g11
S"'\xfc^\x12\xbc-\xb8\xbf"
p1165
tp1166
Rp1167
sg17
g7
(g11
S'\x9b\x8d+\x99\x9e\xc2\xae?'
p1168
tp1169
Rp1170
sg18
(lp1171
(ipyboost.conditions
TrueCondition
p1172
(dp1173
basg20
g1
sg21
(ipyboost.conditions
ThresholdCondition
p1174
(dp1175
g5
I26
sg40
Nsg41
g7
(g11
S'\x00\x00\x00 QO\xec?'
p1176
tp1177
Rp1178
sbsg24
(lp1179
sba(ipyboost.adtree
SplitterNode
p1180
(dp1181
g3
(lp1182
sg5
I65
sg6
g7
(g11
S'\xf6\xaeq\\\r\x81y\xbf'
p1183
tp1184
Rp1185
sg17
g7
(g11
S'\xb6\x95g\xdb\x06WU?'
p1186
tp1187
Rp1188
sg18
(lp1189
(ipyboost.conditions
TrueCondition
p1190
(dp1191
basg20
g1
sg21
(ipyboost.conditions
ThresholdCondition
p1192
(dp1193
g5
I18
sg40
Nsg41
g7
(g11
S'\x00\x00\x00 \x7f5\xef\xbf'
p1194
tp1195
Rp1196
sbsg24
(lp1197
sba(ipyboost.adtree
SplitterNode
p1198
(dp1199
g3
(lp1200
sg5
I66
sg6
g7
(g11
S'\x00\xe4\xd5\x98\xe1\xe6\xbc\xbf'
p1201
tp1202
Rp1203
sg17
g7
(g11
S'\xc8T\x14A\x05\xd7\xa2?'
p1204
tp1205
Rp1206
sg18
(lp1207
(ipyboost.conditions
TrueCondition
p1208
(dp1209
basg20
g1
sg21
(ipyboost.conditions
ThresholdCondition
p1210
(dp1211
g5
I26
sg40
Nsg41
g7
(g11
S'\x00\x00\x00\xb0u\x06\xea?'
p1212
tp1213
Rp1214
sbsg24
(lp1215
sba(ipyboost.adtree
SplitterNode
p1216
(dp1217
g3
(lp1218
sg5
I67
sg6
g7
(g11
S'y\xf4\x1d\xfey\x02\x87\xbf'
p1219
tp1220
Rp1221
sg17
g7
(g11
S'\xc5\xd3\xdb\x96\x98\x07s?'
p1222
tp1223
Rp1224
sg18
(lp1225
(ipyboost.conditions
TrueCondition
p1226
(dp1227
basg20
g1
sg21
(ipyboost.conditions
ThresholdCondition
p1228
(dp1229
g5
I23
sg40
Nsg41
g7
(g11
S'\x00\x00\x00 \x12\x92\xef?'
p1230
tp1231
Rp1232
sbsg24
(lp1233
sba(ipyboost.adtree
SplitterNode
p1234
(dp1235
g3
(lp1236
sg5
I68
sg6
g7
(g11
S'\x85\x92\xb0f{Y\x90?'
p1237
tp1238
Rp1239
sg17
g7
(g11
S'\xf0\xd1\x85\xb5\xc4r\x90\xbf'
p1240
tp1241
Rp1242
sg18
(lp1243
(ipyboost.conditions
TrueCondition
p1244
(dp1245
basg20
g1
sg21
(ipyboost.conditions
ThresholdCondition
p1246
(dp1247
g5
I3
sg40
Nsg41
g7
(g11
S'\x00\x00\x00P\x025\xed?'
p1248
tp1249
Rp1250
sbsg24
(lp1251
sba(ipyboost.adtree
SplitterNode
p1252
(dp1253
g3
(lp1254
sg5
I69
sg6
g7
(g11
S'\x17\xb26Z\xa6k\xac?'
p1255
tp1256
Rp1257
sg17
g7
(g11
S'\xfc\xf7\xd5\xae\xcf\xf0\xa1\xbf'
p1258
tp1259
Rp1260
sg18
(lp1261
(ipyboost.conditions
TrueCondition
p1262
(dp1263
basg20
g1
sg21
(ipyboost.conditions
ThresholdCondition
p1264
(dp1265
g5
I26
sg40
Nsg41
g7
(g11
S'\x00\x00\x00 QO\xec?'
p1266
tp1267
Rp1268
sbsg24
(lp1269
sba(ipyboost.adtree
SplitterNode
p1270
(dp1271
g3
(lp1272
sg5
I70
sg6
g7
(g11
S'\xb4\xa4\xc6\xfc7yw?'
p1273
tp1274
Rp1275
sg17
g7
(g11
S'z~A\x92a\xb5\x83\xbf'
p1276
tp1277
Rp1278
sg18
(lp1279
(ipyboost.conditions
TrueCondition
p1280
(dp1281
basg20
g1
sg21
(ipyboost.conditions
ThresholdCondition
p1282
(dp1283
g5
I4
sg40
Nsg41
g7
(g11
S'\x00\x00\x00\xc0\x0f\xd0\xd9?'
p1284
tp1285
Rp1286
sbsg24
(lp1287
sba(ipyboost.adtree
SplitterNode
p1288
(dp1289
g3
(lp1290
sg5
I71
sg6
g7
(g11
S'o\xc5\xbd\xb36`\xb7\xbf'
p1291
tp1292
Rp1293
sg17
g7
(g11
S'\xf1\x88\xbc2\xf8\xf5\xac?'
p1294
tp1295
Rp1296
sg18
(lp1297
(ipyboost.conditions
TrueCondition
p1298
(dp1299
basg20
g1
sg21
(ipyboost.conditions
ThresholdCondition
p1300
(dp1301
g5
I3
sg40
Nsg41
g7
(g11
S'\x00\x00\x004\xf4\xfe\xe7?'
p1302
tp1303
Rp1304
sbsg24
(lp1305
sba(ipyboost.adtree
SplitterNode
p1306
(dp1307
g3
(lp1308
sg5
I72
sg6
g7
(g11
S'D:\xc7%\xf4\xc1\x98?'
p1309
tp1310
Rp1311
sg17
g7
(g11
S'\xfb\xa4\xc0\xda$\x97\x81\xbf'
p1312
tp1313
Rp1314
sg18
(lp1315
(ipyboost.conditions
TrueCondition
p1316
(dp1317
basg20
g1
sg21
(ipyboost.conditions
ThresholdCondition
p1318
(dp1319
g5
I22
sg40
Nsg41
g7
(g11
S'\x00\x00\x00P\xb4\xff\xea?'
p1320
tp1321
Rp1322
sbsg24
(lp1323
sba(ipyboost.adtree
SplitterNode
p1324
(dp1325
g3
(lp1326
sg5
I73
sg6
g7
(g11
S'\nAR\xc27E\xb3\xbf'
p1327
tp1328
Rp1329
sg17
g7
(g11
S'\x0e\x10p\xef[a\xae?'
p1330
tp1331
Rp1332
sg18
(lp1333
(ipyboost.conditions
TrueCondition
p1334
(dp1335
basg20
g1
sg21
(ipyboost.conditions
ThresholdCondition
p1336
(dp1337
g5
I17
sg40
Nsg41
g7
(g11
S'\x00\x00\x00\x10\x96*\xe9?'
p1338
tp1339
Rp1340
sbsg24
(lp1341
sba(ipyboost.adtree
SplitterNode
p1342
(dp1343
g3
(lp1344
sg5
I74
sg6
g7
(g11
S'\x15\xd2\xc3\x8do#t\xbf'
p1345
tp1346
Rp1347
sg17
g7
(g11
S':v\x0b\xf0\xe4\nP?'
p1348
tp1349
Rp1350
sg18
(lp1351
(ipyboost.conditions
TrueCondition
p1352
(dp1353
basg20
g1
sg21
(ipyboost.conditions
ThresholdCondition
p1354
(dp1355
g5
I27
sg40
Nsg41
g7
(g11
S'\x00\x00\x00\x00L/\xe7?'
p1356
tp1357
Rp1358
sbsg24
(lp1359
sba(ipyboost.adtree
SplitterNode
p1360
(dp1361
g3
(lp1362
sg5
I75
sg6
g7
(g11
S'\xd6U\x0bO5\xdf\x89?'
p1363
tp1364
Rp1365
sg17
g7
(g11
S'n}\xc8\xb4\x9esr\xbf'
p1366
tp1367
Rp1368
sg18
(lp1369
(ipyboost.conditions
TrueCondition
p1370
(dp1371
basg20
g1
sg21
(ipyboost.conditions
ThresholdCondition
p1372
(dp1373
g5
I22
sg40
Nsg41
g7
(g11
S'\x00\x00\x00P\xb4\xff\xea?'
p1374
tp1375
Rp1376
sbsg24
(lp1377
sba(ipyboost.adtree
SplitterNode
p1378
(dp1379
g3
(lp1380
sg5
I76
sg6
g7
(g11
S'!\xf5\xcd\x97\xfc\x19x\xbf'
p1381
tp1382
Rp1383
sg17
g7
(g11
S'\xbc\x94W\x0b\xba\x13\x90?'
p1384
tp1385
Rp1386
sg18
(lp1387
(ipyboost.conditions
TrueCondition
p1388
(dp1389
basg20
g1
sg21
(ipyboost.conditions
ThresholdCondition
p1390
(dp1391
g5
I6
sg40
Nsg41
g7
(g11
S'\x00\x00\x00\x00\xb22\xe5?'
p1392
tp1393
Rp1394
sbsg24
(lp1395
sba(ipyboost.adtree
SplitterNode
p1396
(dp1397
g3
(lp1398
sg5
I77
sg6
g7
(g11
S'\x04\xc0;\xa7\xa6(\x8a?'
p1399
tp1400
Rp1401
sg17
g7
(g11
S'\xb9\x9f]F\x86S\x80\xbf'
p1402
tp1403
Rp1404
sg18
(lp1405
(ipyboost.conditions
TrueCondition
p1406
(dp1407
basg20
g1
sg21
(ipyboost.conditions
ThresholdCondition
p1408
(dp1409
g5
I26
sg40
Nsg41
g7
(g11
S'\x00\x00\x00 QO\xec?'
p1410
tp1411
Rp1412
sbsg24
(lp1413
sba(ipyboost.adtree
SplitterNode
p1414
(dp1415
g3
(lp1416
sg5
I78
sg6
g7
(g11
S'#V_T\xa1\xea\xbb?'
p1417
tp1418
Rp1419
sg17
g7
(g11
S'\tr\x1d\x90pU\xbb\xbf'
p1420
tp1421
Rp1422
sg18
(lp1423
(ipyboost.conditions
TrueCondition
p1424
(dp1425
basg20
g1
sg21
(ipyboost.conditions
ThresholdCondition
p1426
(dp1427
g5
I25
sg40
Nsg41
g7
(g11
S'\x00\x00\x000\x8dA\xec?'
p1428
tp1429
Rp1430
sbsg24
(lp1431
sba(ipyboost.adtree
SplitterNode
p1432
(dp1433
g3
(lp1434
sg5
I79
sg6
g7
(g11
S'\xb3!\x0fo+\xd7T\xbf'
p1435
tp1436
Rp1437
sg17
g7
(g11
S"\xe1\x94'\xab\xbdhU?"
p1438
tp1439
Rp1440
sg18
(lp1441
(ipyboost.conditions
TrueCondition
p1442
(dp1443
basg20
g1
sg21
(ipyboost.conditions
ThresholdCondition
p1444
(dp1445
g5
I1
sg40
Nsg41
g7
(g11
S'\x00\x00\x00\x00\x15u\xaa\xbf'
p1446
tp1447
Rp1448
sbsg24
(lp1449
sba(ipyboost.adtree
SplitterNode
p1450
(dp1451
g3
(lp1452
sg5
I80
sg6
g7
(g11
S'T"\x06\xad\xaf\xd8o?'
p1453
tp1454
Rp1455
sg17
g7
(g11
S'\xffHv\xaf\xd1\xd7\x86\xbf'
p1456
tp1457
Rp1458
sg18
(lp1459
(ipyboost.conditions
TrueCondition
p1460
(dp1461
basg20
g1
sg21
(ipyboost.conditions
ThresholdCondition
p1462
(dp1463
g5
I21
sg40
Nsg41
g7
(g11
S'\x00\x00\x00(\xb6\x10\xf0?'
p1464
tp1465
Rp1466
sbsg24
(lp1467
sba(ipyboost.adtree
SplitterNode
p1468
(dp1469
g3
(lp1470
sg5
I81
sg6
g7
(g11
S'\xa6\xc5w\x01\x12\x14\x96\xbf'
p1471
tp1472
Rp1473
sg17
g7
(g11
S'\x11\x99\xc8/\xcc~\x9e?'
p1474
tp1475
Rp1476
sg18
(lp1477
(ipyboost.conditions
TrueCondition
p1478
(dp1479
basg20
g1
sg21
(ipyboost.conditions
ThresholdCondition
p1480
(dp1481
g5
I19
sg40
Nsg41
g7
(g11
S'\x00\x00\x00\xe0n[\xd4?'
p1482
tp1483
Rp1484
sbsg24
(lp1485
sba(ipyboost.adtree
SplitterNode
p1486
(dp1487
g3
(lp1488
sg5
I82
sg6
g7
(g11
S'\xd8\x92\xbc\x9b\x91\xbc\x93\xbf'
p1489
tp1490
Rp1491
sg17
g7
(g11
S'\xc3e\x8f\xa9\x92\xb0\x99?'
p1492
tp1493
Rp1494
sg18
(lp1495
(ipyboost.conditions
TrueCondition
p1496
(dp1497
basg20
g1
sg21
(ipyboost.conditions
ThresholdCondition
p1498
(dp1499
g5
I8
sg40
Nsg41
g7
(g11
S'\x00\x00\x00\xa0\xb0\x13\xfa?'
p1500
tp1501
Rp1502
sbsg24
(lp1503
sba(ipyboost.adtree
SplitterNode
p1504
(dp1505
g3
(lp1506
sg5
I83
sg6
g7
(g11
S'\xf1\x9df\xa0$\x9bA\xbf'
p1507
tp1508
Rp1509
sg17
g7
(g11
S'\xe3\xc3Q4!OY?'
p1510
tp1511
Rp1512
sg18
(lp1513
(ipyboost.conditions
TrueCondition
p1514
(dp1515
basg20
g1
sg21
(ipyboost.conditions
ThresholdCondition
p1516
(dp1517
g5
I21
sg40
Nsg41
g7
(g11
S'\x00\x00\x00(\xb6\x10\xf0?'
p1518
tp1519
Rp1520
sbsg24
(lp1521
sba(ipyboost.adtree
SplitterNode
p1522
(dp1523
g3
(lp1524
sg5
I84
sg6
g7
(g11
S'}\xe0\xbd(\xb9`)\xbf'
p1525
tp1526
Rp1527
sg17
g7
(g11
S'.@\x03\x17\x82\x9e>?'
p1528
tp1529
Rp1530
sg18
(lp1531
(ipyboost.conditions
TrueCondition
p1532
(dp1533
basg20
g1
sg21
(ipyboost.conditions
ThresholdCondition
p1534
(dp1535
g5
I13
sg40
Nsg41
g7
(g11
S'\x00\x00\x00\x88\xb8\x03\xf2?'
p1536
tp1537
Rp1538
sbsg24
(lp1539
sba(ipyboost.adtree
SplitterNode
p1540
(dp1541
g3
(lp1542
sg5
I85
sg6
g7
(g11
S'\xd1\x82\xe9\xc7\x988\x99?'
p1543
tp1544
Rp1545
sg17
g7
(g11
S'w^\xf9n\xc2]u\xbf'
p1546
tp1547
Rp1548
sg18
(lp1549
(ipyboost.conditions
TrueCondition
p1550
(dp1551
basg20
g1
sg21
(ipyboost.conditions
ThresholdCondition
p1552
(dp1553
g5
I18
sg40
Nsg41
g7
(g11
S'\x00\x00\x00 \x7f5\xef\xbf'
p1554
tp1555
Rp1556
sbsg24
(lp1557
sba(ipyboost.adtree
SplitterNode
p1558
(dp1559
g3
(lp1560
sg5
I86
sg6
g7
(g11
S'\xd4\n\xcf\x83A\x84m?'
p1561
tp1562
Rp1563
sg17
g7
(g11
S'\x82\x1e\xa2\xad\x01\xf9\x80\xbf'
p1564
tp1565
Rp1566
sg18
(lp1567
(ipyboost.conditions
TrueCondition
p1568
(dp1569
basg20
g1
sg21
(ipyboost.conditions
ThresholdCondition
p1570
(dp1571
g5
I15
sg40
Nsg41
g7
(g11
S'\x00\x00\x00h4&\xe3?'
p1572
tp1573
Rp1574
sbsg24
(lp1575
sba(ipyboost.adtree
SplitterNode
p1576
(dp1577
g3
(lp1578
sg5
I87
sg6
g7
(g11
S'/\xd1p5\xb6Ne\xbf'
p1579
tp1580
Rp1581
sg17
g7
(g11
S'5Z]\xfeZPv?'
p1582
tp1583
Rp1584
sg18
(lp1585
(ipyboost.conditions
TrueCondition
p1586
(dp1587
basg20
g1
sg21
(ipyboost.conditions
ThresholdCondition
p1588
(dp1589
g5
I7
sg40
Nsg41
g7
(g11
S'\x00\x00\x00\xc0\xfa\xba\xe3?'
p1590
tp1591
Rp1592
sbsg24
(lp1593
sba(ipyboost.adtree
SplitterNode
p1594
(dp1595
g3
(lp1596
sg5
I88
sg6
g7
(g11
S'C\x93  \xc3A\x92?'
p1597
tp1598
Rp1599
sg17
g7
(g11
S'\xaf.\x8a\xe3\x055\x80\xbf'
p1600
tp1601
Rp1602
sg18
(lp1603
(ipyboost.conditions
TrueCondition
p1604
(dp1605
basg20
g1
sg21
(ipyboost.conditions
ThresholdCondition
p1606
(dp1607
g5
I23
sg40
Nsg41
g7
(g11
S'\x00\x00\x00\xb0\xeb\x92\xef?'
p1608
tp1609
Rp1610
sbsg24
(lp1611
sba(ipyboost.adtree
SplitterNode
p1612
(dp1613
g3
(lp1614
sg5
I89
sg6
g7
(g11
S'\xa1lJ\xc0\xfd\x95#\xbf'
p1615
tp1616
Rp1617
sg17
g7
(g11
S'\x06\x99\t\xa6\x9d\xb87?'
p1618
tp1619
Rp1620
sg18
(lp1621
(ipyboost.conditions
TrueCondition
p1622
(dp1623
basg20
g1
sg21
(ipyboost.conditions
ThresholdCondition
p1624
(dp1625
g5
I13
sg40
Nsg41
g7
(g11
S'\x00\x00\x00\x88\xb8\x03\xf2?'
p1626
tp1627
Rp1628
sbsg24
(lp1629
sba(ipyboost.adtree
SplitterNode
p1630
(dp1631
g3
(lp1632
sg5
I90
sg6
g7
(g11
S'\xee\x90.\xe3%\x98>?'
p1633
tp1634
Rp1635
sg17
g7
(g11
S'\x83H!\x00\xf9\xf7C\xbf'
p1636
tp1637
Rp1638
sg18
(lp1639
(ipyboost.conditions
TrueCondition
p1640
(dp1641
basg20
g1
sg21
(ipyboost.conditions
ThresholdCondition
p1642
(dp1643
g5
I8
sg40
Nsg41
g7
(g11
S'\x00\x00\x00\xa0\xb0\x13\xfa?'
p1644
tp1645
Rp1646
sbsg24
(lp1647
sba(ipyboost.adtree
SplitterNode
p1648
(dp1649
g3
(lp1650
sg5
I91
sg6
g7
(g11
S'~\xa9*\xff#G\x8a?'
p1651
tp1652
Rp1653
sg17
g7
(g11
S'1\xban\x95\xa4\xf0\x97\xbf'
p1654
tp1655
Rp1656
sg18
(lp1657
(ipyboost.conditions
TrueCondition
p1658
(dp1659
basg20
g1
sg21
(ipyboost.conditions
ThresholdCondition
p1660
(dp1661
g5
I5
sg40
Nsg41
g7
(g11
S'\x00\x00\x00\xc0d\x8a\xf0?'
p1662
tp1663
Rp1664
sbsg24
(lp1665
sba(ipyboost.adtree
SplitterNode
p1666
(dp1667
g3
(lp1668
sg5
I92
sg6
g7
(g11
S'\x12\xb9\x014\xc9zJ\xbf'
p1669
tp1670
Rp1671
sg17
g7
(g11
S'\x86\xb0:\xb0mFR?'
p1672
tp1673
Rp1674
sg18
(lp1675
(ipyboost.conditions
TrueCondition
p1676
(dp1677
basg20
g1
sg21
(ipyboost.conditions
ThresholdCondition
p1678
(dp1679
g5
I19
sg40
Nsg41
g7
(g11
S'\x00\x00\x00\xe0n[\xd4?'
p1680
tp1681
Rp1682
sbsg24
(lp1683
sba(ipyboost.adtree
SplitterNode
p1684
(dp1685
g3
(lp1686
sg5
I93
sg6
g7
(g11
S'\x00\x00\x00\x00\x00\x00\xa0\xbc'
p1687
tp1688
Rp1689
sg17
g7
(g11
S'\x00\x00\x00\x00\x00\x00\x00\x00'
p1690
tp1691
Rp1692
sg18
(lp1693
(ipyboost.conditions
TrueCondition
p1694
(dp1695
basg20
g1
sg21
(ipyboost.conditions
ThresholdCondition
p1696
(dp1697
g5
I19
sg40
Nsg41
g7
(g11
S'\x00\x00\x00\xe0n[\xd4?'
p1698
tp1699
Rp1700
sbsg24
(lp1701
sba(ipyboost.adtree
SplitterNode
p1702
(dp1703
g3
(lp1704
sg5
I94
sg6
g7
(g11
S'\x8e\xc4\xb7&\xa7\xe3c\xbf'
p1705
tp1706
Rp1707
sg17
g7
(g11
S'W-\x11\xfd8ad?'
p1708
tp1709
Rp1710
sg18
(lp1711
(ipyboost.conditions
TrueCondition
p1712
(dp1713
basg20
g1
sg21
(ipyboost.conditions
ThresholdCondition
p1714
(dp1715
g5
I1
sg40
Nsg41
g7
(g11
S'\x00\x00\x00\x00\x15u\xaa\xbf'
p1716
tp1717
Rp1718
sbsg24
(lp1719
sba(ipyboost.adtree
SplitterNode
p1720
(dp1721
g3
(lp1722
sg5
I95
sg6
g7
(g11
S'$Sb\xd4\x0cy\x9e?'
p1723
tp1724
Rp1725
sg17
g7
(g11
S'T\x90]?Z\xeb\xa0\xbf'
p1726
tp1727
Rp1728
sg18
(lp1729
(ipyboost.conditions
TrueCondition
p1730
(dp1731
basg20
g1
sg21
(ipyboost.conditions
ThresholdCondition
p1732
(dp1733
g5
I25
sg40
Nsg41
g7
(g11
S'\x00\x00\x00\xd0\xc5\xdd\xec?'
p1734
tp1735
Rp1736
sbsg24
(lp1737
sba(ipyboost.adtree
SplitterNode
p1738
(dp1739
g3
(lp1740
sg5
I96
sg6
g7
(g11
S'X:C\x0e\x8e\x99s?'
p1741
tp1742
Rp1743
sg17
g7
(g11
S'\xec\xed\xbd\xb2\x0f\xa4q\xbf'
p1744
tp1745
Rp1746
sg18
(lp1747
(ipyboost.conditions
TrueCondition
p1748
(dp1749
basg20
g1
sg21
(ipyboost.conditions
ThresholdCondition
p1750
(dp1751
g5
I6
sg40
Nsg41
g7
(g11
S'\x00\x00\x00\x80G\xe2\xaa\xbf'
p1752
tp1753
Rp1754
sbsg24
(lp1755
sba(ipyboost.adtree
SplitterNode
p1756
(dp1757
g3
(lp1758
sg5
I97
sg6
g7
(g11
S'\xfa\x8c\x05\x8dB;\xa2\xbf'
p1759
tp1760
Rp1761
sg17
g7
(g11
S'VpT\x186\xe1\x89?'
p1762
tp1763
Rp1764
sg18
(lp1765
(ipyboost.conditions
TrueCondition
p1766
(dp1767
basg20
g1
sg21
(ipyboost.conditions
ThresholdCondition
p1768
(dp1769
g5
I22
sg40
Nsg41
g7
(g11
S'\x00\x00\x00P\xb4\xff\xea?'
p1770
tp1771
Rp1772
sbsg24
(lp1773
sba(ipyboost.adtree
SplitterNode
p1774
(dp1775
g3
(lp1776
sg5
I98
sg6
g7
(g11
S'\xc31\x85\xea\xa2\x03f?'
p1777
tp1778
Rp1779
sg17
g7
(g11
S'\xd5\xfa\xd4\xa5\x92{h\xbf'
p1780
tp1781
Rp1782
sg18
(lp1783
(ipyboost.conditions
TrueCondition
p1784
(dp1785
basg20
g1
sg21
(ipyboost.conditions
ThresholdCondition
p1786
(dp1787
g5
I25
sg40
Nsg41
g7
(g11
S'\x00\x00\x00\xd0\xc5\xdd\xec?'
p1788
tp1789
Rp1790
sbsg24
(lp1791
sba(ipyboost.adtree
SplitterNode
p1792
(dp1793
g3
(lp1794
sg5
I99
sg6
g7
(g11
S'\x06\xab($\xce\xbfq\xbf'
p1795
tp1796
Rp1797
sg17
g7
(g11
S'\r\x14\xd1B\xec\xab\x85?'
p1798
tp1799
Rp1800
sg18
(lp1801
(ipyboost.conditions
TrueCondition
p1802
(dp1803
basg20
g1
sg21
(ipyboost.conditions
ThresholdCondition
p1804
(dp1805
g5
I13
sg40
Nsg41
g7
(g11
S'\x00\x00\x00\x88\xb8\x03\xf2?'
p1806
tp1807
Rp1808
sbsg24
(lp1809
sba(ipyboost.adtree
SplitterNode
p1810
(dp1811
g3
(lp1812
sg5
I100
sg6
g7
(g11
S'\xb9\x08\xcc\xe74\xfe\x7f?'
p1813
tp1814
Rp1815
sg17
g7
(g11
S'\x1eT\x86v\x83\x9c\xd4\xbf'
p1816
tp1817
Rp1818
sg18
(lp1819
(ipyboost.conditions
TrueCondition
p1820
(dp1821
basg20
g1
sg21
(ipyboost.conditions
ThresholdCondition
p1822
(dp1823
g5
I1
sg40
Nsg41
g7
(g11
S'\x00\x00\x00 \xec\x1f\xfd?'
p1824
tp1825
Rp1826
sbsg24
(lp1827
sba(ipyboost.adtree
SplitterNode
p1828
(dp1829
g3
(lp1830
sg5
I101
sg6
g7
(g11
S'\xc4\xc1A\x99\x03w\x80?'
p1831
tp1832
Rp1833
sg17
g7
(g11
S'\xf1\xde\x1c\x03T\xefu\xbf'
p1834
tp1835
Rp1836
sg18
(lp1837
(ipyboost.conditions
TrueCondition
p1838
(dp1839
basg20
g1
sg21
(ipyboost.conditions
ThresholdCondition
p1840
(dp1841
g5
I11
sg40
Nsg41
g7
(g11
S'\x00\x00\x00\x00\x071\xd8\xbf'
p1842
tp1843
Rp1844
sbsg24
(lp1845
sba(ipyboost.adtree
SplitterNode
p1846
(dp1847
g3
(lp1848
sg5
I102
sg6
g7
(g11
S'\x96%\x89\xc9L|`\xbf'
p1849
tp1850
Rp1851
sg17
g7
(g11
S'\x06\x0b\xdd\xcf\xdf\xbe]?'
p1852
tp1853
Rp1854
sg18
(lp1855
(ipyboost.conditions
TrueCondition
p1856
(dp1857
basg20
g1
sg21
(ipyboost.conditions
ThresholdCondition
p1858
(dp1859
g5
I6
sg40
Nsg41
g7
(g11
S'\x00\x00\x00\x80G\xe2\xaa\xbf'
p1860
tp1861
Rp1862
sbsg24
(lp1863
sba(ipyboost.adtree
SplitterNode
p1864
(dp1865
g3
(lp1866
sg5
I103
sg6
g7
(g11
S'\xdc1\xa7\xda\xb9j\x9e\xbf'
p1867
tp1868
Rp1869
sg17
g7
(g11
S'\xe0\xe8\x14\xe6\x83\xd0\x9d?'
p1870
tp1871
Rp1872
sg18
(lp1873
(ipyboost.conditions
TrueCondition
p1874
(dp1875
basg20
g1
sg21
(ipyboost.conditions
ThresholdCondition
p1876
(dp1877
g5
I25
sg40
Nsg41
g7
(g11
S'\x00\x00\x000\x8dA\xec?'
p1878
tp1879
Rp1880
sbsg24
(lp1881
sba(ipyboost.adtree
SplitterNode
p1882
(dp1883
g3
(lp1884
sg5
I104
sg6
g7
(g11
S'\xff\n\xdf\xe4\xff\xff\x99\xbf'
p1885
tp1886
Rp1887
sg17
g7
(g11
S'\x194z\xa7\xea\xdd\xa1?'
p1888
tp1889
Rp1890
sg18
(lp1891
(ipyboost.conditions
TrueCondition
p1892
(dp1893
basg20
g1
sg21
(ipyboost.conditions
ThresholdCondition
p1894
(dp1895
g5
I9
sg40
Nsg41
g7
(g11
S'\x00\x00\x00H\xea\x06\xf0?'
p1896
tp1897
Rp1898
sbsg24
(lp1899
sba(ipyboost.adtree
SplitterNode
p1900
(dp1901
g3
(lp1902
sg5
I105
sg6
g7
(g11
S'\xb77\xa3n\x8e\x0bh\xbf'
p1903
tp1904
Rp1905
sg17
g7
(g11
S'\xaad|6\xb7\x95{?'
p1906
tp1907
Rp1908
sg18
(lp1909
(ipyboost.conditions
TrueCondition
p1910
(dp1911
basg20
g1
sg21
(ipyboost.conditions
ThresholdCondition
p1912
(dp1913
g5
I15
sg40
Nsg41
g7
(g11
S'\x00\x00\x00h4&\xe3?'
p1914
tp1915
Rp1916
sbsg24
(lp1917
sba(ipyboost.adtree
SplitterNode
p1918
(dp1919
g3
(lp1920
sg5
I106
sg6
g7
(g11
S'\n\xf1~\x9cRt\x89\xbf'
p1921
tp1922
Rp1923
sg17
g7
(g11
S'\xa2\x96Z\x1ck\xbb\x95?'
p1924
tp1925
Rp1926
sg18
(lp1927
(ipyboost.conditions
TrueCondition
p1928
(dp1929
basg20
g1
sg21
(ipyboost.conditions
ThresholdCondition
p1930
(dp1931
g5
I17
sg40
Nsg41
g7
(g11
S'\x00\x00\x00hz;\xf0?'
p1932
tp1933
Rp1934
sbsg24
(lp1935
sba(ipyboost.adtree
SplitterNode
p1936
(dp1937
g3
(lp1938
sg5
I107
sg6
g7
(g11
S'\x06)\xe3\x1emA\xbe\xbf'
p1939
tp1940
Rp1941
sg17
g7
(g11
S'"8^3H\xa7\xa3?'
p1942
tp1943
Rp1944
sg18
(lp1945
(ipyboost.conditions
TrueCondition
p1946
(dp1947
basg20
g1
sg21
(ipyboost.conditions
ThresholdCondition
p1948
(dp1949
g5
I26
sg40
Nsg41
g7
(g11
S'\x00\x00\x00\xb0u\x06\xea?'
p1950
tp1951
Rp1952
sbsg24
(lp1953
sba(ipyboost.adtree
SplitterNode
p1954
(dp1955
g3
(lp1956
sg5
I108
sg6
g7
(g11
S'~k\x17\x98aJZ\xbf'
p1957
tp1958
Rp1959
sg17
g7
(g11
S'\xe2gbo\xa8\x12=?'
p1960
tp1961
Rp1962
sg18
(lp1963
(ipyboost.conditions
TrueCondition
p1964
(dp1965
basg20
g1
sg21
(ipyboost.conditions
ThresholdCondition
p1966
(dp1967
g5
I15
sg40
Nsg41
g7
(g11
S'\x00\x00\x000@R\xf0\xbf'
p1968
tp1969
Rp1970
sbsg24
(lp1971
sba(ipyboost.adtree
SplitterNode
p1972
(dp1973
g3
(lp1974
sg5
I109
sg6
g7
(g11
S'@\x1d0\x1a?\xfaW?'
p1975
tp1976
Rp1977
sg17
g7
(g11
S's\xa8\x98\xab\xa4]U\xbf'
p1978
tp1979
Rp1980
sg18
(lp1981
(ipyboost.conditions
TrueCondition
p1982
(dp1983
basg20
g1
sg21
(ipyboost.conditions
ThresholdCondition
p1984
(dp1985
g5
I6
sg40
Nsg41
g7
(g11
S'\x00\x00\x00\x80G\xe2\xaa\xbf'
p1986
tp1987
Rp1988
sbsg24
(lp1989
sba(ipyboost.adtree
SplitterNode
p1990
(dp1991
g3
(lp1992
sg5
I110
sg6
g7
(g11
S'\x98\x8cm\x89g\x88\x98?'
p1993
tp1994
Rp1995
sg17
g7
(g11
S'\xb5\x13<\xd4\x8d{\x81\xbf'
p1996
tp1997
Rp1998
sg18
(lp1999
(ipyboost.conditions
TrueCondition
p2000
(dp2001
basg20
g1
sg21
(ipyboost.conditions
ThresholdCondition
p2002
(dp2003
g5
I22
sg40
Nsg41
g7
(g11
S'\x00\x00\x00P\xb4\xff\xea?'
p2004
tp2005
Rp2006
sbsg24
(lp2007
sba(ipyboost.adtree
SplitterNode
p2008
(dp2009
g3
(lp2010
sg5
I111
sg6
g7
(g11
S'\xd77\xdf\xef\xdde~\xbf'
p2011
tp2012
Rp2013
sg17
g7
(g11
S'\x11(\xac\xe0\xb0\x94\x85?'
p2014
tp2015
Rp2016
sg18
(lp2017
(ipyboost.conditions
TrueCondition
p2018
(dp2019
basg20
g1
sg21
(ipyboost.conditions
ThresholdCondition
p2020
(dp2021
g5
I14
sg40
Nsg41
g7
(g11
S'\x00\x00\x00\x00#]\xcf?'
p2022
tp2023
Rp2024
sbsg24
(lp2025
sba(ipyboost.adtree
SplitterNode
p2026
(dp2027
g3
(lp2028
sg5
I112
sg6
g7
(g11
S'9\xe2\x87u\xfbf\x86\xbf'
p2029
tp2030
Rp2031
sg17
g7
(g11
S'\xdd\xfb\xc9\x97\xf1\xda\x8e?'
p2032
tp2033
Rp2034
sg18
(lp2035
(ipyboost.conditions
TrueCondition
p2036
(dp2037
basg20
g1
sg21
(ipyboost.conditions
ThresholdCondition
p2038
(dp2039
g5
I4
sg40
Nsg41
g7
(g11
S'\x00\x00\x00\x00\xb4\x81\xca?'
p2040
tp2041
Rp2042
sbsg24
(lp2043
sba(ipyboost.adtree
SplitterNode
p2044
(dp2045
g3
(lp2046
sg5
I113
sg6
g7
(g11
S'\x12Ve\xc3\xeb\x9c~?'
p2047
tp2048
Rp2049
sg17
g7
(g11
S'\x11\x8c|U\xe0\x91Y\xbf'
p2050
tp2051
Rp2052
sg18
(lp2053
(ipyboost.conditions
TrueCondition
p2054
(dp2055
basg20
g1
sg21
(ipyboost.conditions
ThresholdCondition
p2056
(dp2057
g5
I18
sg40
Nsg41
g7
(g11
S'\x00\x00\x00 \x7f5\xef\xbf'
p2058
tp2059
Rp2060
sbsg24
(lp2061
sba(ipyboost.adtree
SplitterNode
p2062
(dp2063
g3
(lp2064
sg5
I114
sg6
g7
(g11
S'\xd5yc\xe0o\x87\x8a\xbf'
p2065
tp2066
Rp2067
sg17
g7
(g11
S')\x89\x88{W\xd0\x9b?'
p2068
tp2069
Rp2070
sg18
(lp2071
(ipyboost.conditions
TrueCondition
p2072
(dp2073
basg20
g1
sg21
(ipyboost.conditions
ThresholdCondition
p2074
(dp2075
g5
I16
sg40
Nsg41
g7
(g11
S'\x00\x00\x00\x80\xc3b\xf4?'
p2076
tp2077
Rp2078
sbsg24
(lp2079
sba(ipyboost.adtree
SplitterNode
p2080
(dp2081
g3
(lp2082
sg5
I115
sg6
g7
(g11
S'W.C\x86\x86\x13`\xbf'
p2083
tp2084
Rp2085
sg17
g7
(g11
S'\x91\x08\xa2Q\x87\xb5u?'
p2086
tp2087
Rp2088
sg18
(lp2089
(ipyboost.conditions
TrueCondition
p2090
(dp2091
basg20
g1
sg21
(ipyboost.conditions
ThresholdCondition
p2092
(dp2093
g5
I6
sg40
Nsg41
g7
(g11
S'\x00\x00\x00\x00\xb22\xe5?'
p2094
tp2095
Rp2096
sbsg24
(lp2097
sba(ipyboost.adtree
SplitterNode
p2098
(dp2099
g3
(lp2100
sg5
I116
sg6
g7
(g11
S'\x9a\xc2\x80\x96\xc9!\x99?'
p2101
tp2102
Rp2103
sg17
g7
(g11
S'R\xd9\xf8\xb7\x13\xa7\xaa\xbf'
p2104
tp2105
Rp2106
sg18
(lp2107
(ipyboost.conditions
TrueCondition
p2108
(dp2109
basg20
g1
sg21
(ipyboost.conditions
ThresholdCondition
p2110
(dp2111
g5
I11
sg40
Nsg41
g7
(g11
S'\x00\x00\x00\xa8\x1f\x06\xe4?'
p2112
tp2113
Rp2114
sbsg24
(lp2115
sba(ipyboost.adtree
SplitterNode
p2116
(dp2117
g3
(lp2118
sg5
I117
sg6
g7
(g11
S'\x1d\xc4\x08UU\xdfw?'
p2119
tp2120
Rp2121
sg17
g7
(g11
S'\x0epy\xad\x10x\x80\xbf'
p2122
tp2123
Rp2124
sg18
(lp2125
(ipyboost.conditions
TrueCondition
p2126
(dp2127
basg20
g1
sg21
(ipyboost.conditions
ThresholdCondition
p2128
(dp2129
g5
I19
sg40
Nsg41
g7
(g11
S'\x00\x00\x00\xe0n[\xd4?'
p2130
tp2131
Rp2132
sbsg24
(lp2133
sba(ipyboost.adtree
SplitterNode
p2134
(dp2135
g3
(lp2136
sg5
I118
sg6
g7
(g11
S'\\\x13\xcf\x8er$d\xbf'
p2137
tp2138
Rp2139
sg17
g7
(g11
S'NW\xb4/\xce\xc3d?'
p2140
tp2141
Rp2142
sg18
(lp2143
(ipyboost.conditions
TrueCondition
p2144
(dp2145
basg20
g1
sg21
(ipyboost.conditions
ThresholdCondition
p2146
(dp2147
g5
I1
sg40
Nsg41
g7
(g11
S'\x00\x00\x00\x00\x15u\xaa\xbf'
p2148
tp2149
Rp2150
sbsg24
(lp2151
sba(ipyboost.adtree
SplitterNode
p2152
(dp2153
g3
(lp2154
sg5
I119
sg6
g7
(g11
S'\xc2\xa8\x8bm \x81\xa1?'
p2155
tp2156
Rp2157
sg17
g7
(g11
S']\x8b.-(\x07|\xbf'
p2158
tp2159
Rp2160
sg18
(lp2161
(ipyboost.conditions
TrueCondition
p2162
(dp2163
basg20
g1
sg21
(ipyboost.conditions
ThresholdCondition
p2164
(dp2165
g5
I27
sg40
Nsg41
g7
(g11
S'\x00\x00\x00\x00L/\xe7?'
p2166
tp2167
Rp2168
sbsg24
(lp2169
sba(ipyboost.adtree
SplitterNode
p2170
(dp2171
g3
(lp2172
sg5
I120
sg6
g7
(g11
S'\xbd\xbf\xcdv\x03h!?'
p2173
tp2174
Rp2175
sg17
g7
(g11
S'\x9dT\xd1\x1a\xa7\xe2(\xbf'
p2176
tp2177
Rp2178
sg18
(lp2179
(ipyboost.conditions
TrueCondition
p2180
(dp2181
basg20
g1
sg21
(ipyboost.conditions
ThresholdCondition
p2182
(dp2183
g5
I14
sg40
Nsg41
g7
(g11
S'\x00\x00\x00\x00#]\xcf?'
p2184
tp2185
Rp2186
sbsg24
(lp2187
sba(ipyboost.adtree
SplitterNode
p2188
(dp2189
g3
(lp2190
sg5
I121
sg6
g7
(g11
S'\xbdD\xd6\xcbo\xb9;\xbf'
p2191
tp2192
Rp2193
sg17
g7
(g11
S'\xb8L\xbf-l?1?'
p2194
tp2195
Rp2196
sg18
(lp2197
(ipyboost.conditions
TrueCondition
p2198
(dp2199
basg20
g1
sg21
(ipyboost.conditions
ThresholdCondition
p2200
(dp2201
g5
I26
sg40
Nsg41
g7
(g11
S'\x00\x00\x00 QO\xec?'
p2202
tp2203
Rp2204
sbsg24
(lp2205
sba(ipyboost.adtree
SplitterNode
p2206
(dp2207
g3
(lp2208
sg5
I122
sg6
g7
(g11
S'\x8d\xe1\x91wz]\x85?'
p2209
tp2210
Rp2211
sg17
g7
(g11
S'7Y=\x19<\xaa\x91\xbf'
p2212
tp2213
Rp2214
sg18
(lp2215
(ipyboost.conditions
TrueCondition
p2216
(dp2217
basg20
g1
sg21
(ipyboost.conditions
ThresholdCondition
p2218
(dp2219
g5
I2
sg40
Nsg41
g7
(g11
S'\x00\x00\x00 S\x9b\xda?'
p2220
tp2221
Rp2222
sbsg24
(lp2223
sba(ipyboost.adtree
SplitterNode
p2224
(dp2225
g3
(lp2226
sg5
I123
sg6
g7
(g11
S'\x94\xb3\x98\xb0\x9a0\x97\xbf'
p2227
tp2228
Rp2229
sg17
g7
(g11
S'\xa6W\xc7|Tc\x8b?'
p2230
tp2231
Rp2232
sg18
(lp2233
(ipyboost.conditions
TrueCondition
p2234
(dp2235
basg20
g1
sg21
(ipyboost.conditions
ThresholdCondition
p2236
(dp2237
g5
I17
sg40
Nsg41
g7
(g11
S'\x00\x00\x00\x80;\x08\xe7?'
p2238
tp2239
Rp2240
sbsg24
(lp2241
sba(ipyboost.adtree
SplitterNode
p2242
(dp2243
g3
(lp2244
sg5
I124
sg6
g7
(g11
S'\xff\xdbW\x02\xf4.&?'
p2245
tp2246
Rp2247
sg17
g7
(g11
S'\xfee)3pY2\xbf'
p2248
tp2249
Rp2250
sg18
(lp2251
(ipyboost.conditions
TrueCondition
p2252
(dp2253
basg20
g1
sg21
(ipyboost.conditions
ThresholdCondition
p2254
(dp2255
g5
I2
sg40
Nsg41
g7
(g11
S'\x00\x00\x00 S\x9b\xda?'
p2256
tp2257
Rp2258
sbsg24
(lp2259
sba(ipyboost.adtree
SplitterNode
p2260
(dp2261
g3
(lp2262
sg5
I125
sg6
g7
(g11
S'\xcd[\x15\x8b\xbf\xbad?'
p2263
tp2264
Rp2265
sg17
g7
(g11
S'\x12\x1f\xde\x10\x90\xcfY\xbf'
p2266
tp2267
Rp2268
sg18
(lp2269
(ipyboost.conditions
TrueCondition
p2270
(dp2271
basg20
g1
sg21
(ipyboost.conditions
ThresholdCondition
p2272
(dp2273
g5
I26
sg40
Nsg41
g7
(g11
S'\x00\x00\x00 QO\xec?'
p2274
tp2275
Rp2276
sbsg24
(lp2277
sba(ipyboost.adtree
SplitterNode
p2278
(dp2279
g3
(lp2280
sg5
I126
sg6
g7
(g11
S'\x85\xe3u \xad\xa2\x0f\xbf'
p2281
tp2282
Rp2283
sg17
g7
(g11
S'c\xab!\x91\xeb\xdc\x15?'
p2284
tp2285
Rp2286
sg18
(lp2287
(ipyboost.conditions
TrueCondition
p2288
(dp2289
basg20
g1
sg21
(ipyboost.conditions
ThresholdCondition
p2290
(dp2291
g5
I19
sg40
Nsg41
g7
(g11
S'\x00\x00\x00\xe0n[\xd4?'
p2292
tp2293
Rp2294
sbsg24
(lp2295
sba(ipyboost.adtree
SplitterNode
p2296
(dp2297
g3
(lp2298
sg5
I127
sg6
g7
(g11
S'Zp\x93u\xf7g4?'
p2299
tp2300
Rp2301
sg17
g7
(g11
S'N-\xa0q\xff\x14\x1d\xbf'
p2302
tp2303
Rp2304
sg18
(lp2305
(ipyboost.conditions
TrueCondition
p2306
(dp2307
basg20
g1
sg21
(ipyboost.conditions
ThresholdCondition
p2308
(dp2309
g5
I22
sg40
Nsg41
g7
(g11
S'\x00\x00\x00P\xb4\xff\xea?'
p2310
tp2311
Rp2312
sbsg24
(lp2313
sba(ipyboost.adtree
SplitterNode
p2314
(dp2315
g3
(lp2316
sg5
I128
sg6
g7
(g11
S'\x90\x94\xe0\xb4l\xf6\xa2\xbf'
p2317
tp2318
Rp2319
sg17
g7
(g11
S'S\x1d\xa1i \xcf\x94?'
p2320
tp2321
Rp2322
sg18
(lp2323
(ipyboost.conditions
TrueCondition
p2324
(dp2325
basg20
g1
sg21
(ipyboost.conditions
ThresholdCondition
p2326
(dp2327
g5
I24
sg40
Nsg41
g7
(g11
S'\x00\x00\x00\xe0\x85\x9f\xea?'
p2328
tp2329
Rp2330
sbsg24
(lp2331
sba(ipyboost.adtree
SplitterNode
p2332
(dp2333
g3
(lp2334
sg5
I129
sg6
g7
(g11
S'\x00\x00\x00\x00\x00\x00\x90\xbc'
p2335
tp2336
Rp2337
sg17
g7
(g11
S'\x01\x00\x00\x00\x00\x00\xa8\xbc'
p2338
tp2339
Rp2340
sg18
(lp2341
(ipyboost.conditions
TrueCondition
p2342
(dp2343
basg20
g1
sg21
(ipyboost.conditions
ThresholdCondition
p2344
(dp2345
g5
I24
sg40
Nsg41
g7
(g11
S'\x00\x00\x00\xe0\x85\x9f\xea?'
p2346
tp2347
Rp2348
sbsg24
(lp2349
sba(ipyboost.adtree
SplitterNode
p2350
(dp2351
g3
(lp2352
sg5
I130
sg6
g7
(g11
S'\tW\xdb\xd9\xe3/I\xbf'
p2353
tp2354
Rp2355
sg17
g7
(g11
S'\xfb\xef\xd0\xff\xe2VZ?'
p2356
tp2357
Rp2358
sg18
(lp2359
(ipyboost.conditions
TrueCondition
p2360
(dp2361
basg20
g1
sg21
(ipyboost.conditions
ThresholdCondition
p2362
(dp2363
g5
I16
sg40
Nsg41
g7
(g11
S'\x00\x00\x00\x80\xc3b\xf4?'
p2364
tp2365
Rp2366
sbsg24
(lp2367
sba(ipyboost.adtree
SplitterNode
p2368
(dp2369
g3
(lp2370
sg5
I131
sg6
g7
(g11
S'\xa3\xeaW\xcaj\xe7`?'
p2371
tp2372
Rp2373
sg17
g7
(g11
S'\xdf\x19\x9f\xb8\x88\xdeq\xbf'
p2374
tp2375
Rp2376
sg18
(lp2377
(ipyboost.conditions
TrueCondition
p2378
(dp2379
basg20
g1
sg21
(ipyboost.conditions
ThresholdCondition
p2380
(dp2381
g5
I11
sg40
Nsg41
g7
(g11
S'\x00\x00\x00\xa8\x1f\x06\xe4?'
p2382
tp2383
Rp2384
sbsg24
(lp2385
sba(ipyboost.adtree
SplitterNode
p2386
(dp2387
g3
(lp2388
sg5
I132
sg6
g7
(g11
S'\xb9\x1e\xf9\xcc\xec\xdc\x83?'
p2389
tp2390
Rp2391
sg17
g7
(g11
S'z\xc3\x80\x88\xa4\x8es\xbf'
p2392
tp2393
Rp2394
sg18
(lp2395
(ipyboost.conditions
TrueCondition
p2396
(dp2397
basg20
g1
sg21
(ipyboost.conditions
ThresholdCondition
p2398
(dp2399
g5
I19
sg40
Nsg41
g7
(g11
S'\x00\x00\x00h}\xb9\xe2\xbf'
p2400
tp2401
Rp2402
sbsg24
(lp2403
sba(ipyboost.adtree
SplitterNode
p2404
(dp2405
g3
(lp2406
sg5
I133
sg6
g7
(g11
S'V\xb8\xc5j\xfa@\x89?'
p2407
tp2408
Rp2409
sg17
g7
(g11
S'tC\n\x85F5u\xbf'
p2410
tp2411
Rp2412
sg18
(lp2413
(ipyboost.conditions
TrueCondition
p2414
(dp2415
basg20
g1
sg21
(ipyboost.conditions
ThresholdCondition
p2416
(dp2417
g5
I23
sg40
Nsg41
g7
(g11
S'\x00\x00\x00 \x12\x92\xef?'
p2418
tp2419
Rp2420
sbsg24
(lp2421
sba(ipyboost.adtree
SplitterNode
p2422
(dp2423
g3
(lp2424
sg5
I134
sg6
g7
(g11
S'I\x1fD\x11\x9a{\xae?'
p2425
tp2426
Rp2427
sg17
g7
(g11
S'\x93]\xd1\xbc\x86\xba\xb0\xbf'
p2428
tp2429
Rp2430
sg18
(lp2431
(ipyboost.conditions
TrueCondition
p2432
(dp2433
basg20
g1
sg21
(ipyboost.conditions
ThresholdCondition
p2434
(dp2435
g5
I25
sg40
Nsg41
g7
(g11
S'\x00\x00\x00\xd0\xc5\xdd\xec?'
p2436
tp2437
Rp2438
sbsg24
(lp2439
sba(ipyboost.adtree
SplitterNode
p2440
(dp2441
g3
(lp2442
sg5
I135
sg6
g7
(g11
S'{\x12\xa8\x9d0K\x97\xbf'
p2443
tp2444
Rp2445
sg17
g7
(g11
S'\xc6\xe9w\xb4\xb4\xaf\x96?'
p2446
tp2447
Rp2448
sg18
(lp2449
(ipyboost.conditions
TrueCondition
p2450
(dp2451
basg20
g1
sg21
(ipyboost.conditions
ThresholdCondition
p2452
(dp2453
g5
I25
sg40
Nsg41
g7
(g11
S'\x00\x00\x000\x8dA\xec?'
p2454
tp2455
Rp2456
sbsg24
(lp2457
sba(ipyboost.adtree
SplitterNode
p2458
(dp2459
g3
(lp2460
sg5
I136
sg6
g7
(g11
S'\xad\xde\xdf\x8d7\x1cF\xbf'
p2461
tp2462
Rp2463
sg17
g7
(g11
S'd\x8fi\xd9\xa1\xbe(?'
p2464
tp2465
Rp2466
sg18
(lp2467
(ipyboost.conditions
TrueCondition
p2468
(dp2469
basg20
g1
sg21
(ipyboost.conditions
ThresholdCondition
p2470
(dp2471
g5
I15
sg40
Nsg41
g7
(g11
S'\x00\x00\x000@R\xf0\xbf'
p2472
tp2473
Rp2474
sbsg24
(lp2475
sba(ipyboost.adtree
SplitterNode
p2476
(dp2477
g3
(lp2478
sg5
I137
sg6
g7
(g11
S'.\xac\x80\xad\xa4n\xa7\xbe'
p2479
tp2480
Rp2481
sg17
g7
(g11
S'\x7f\t\x87GL\xd2\xa6>'
p2482
tp2483
Rp2484
sg18
(lp2485
(ipyboost.conditions
TrueCondition
p2486
(dp2487
basg20
g1
sg21
(ipyboost.conditions
ThresholdCondition
p2488
(dp2489
g5
I25
sg40
Nsg41
g7
(g11
S'\x00\x00\x000\x8dA\xec?'
p2490
tp2491
Rp2492
sbsg24
(lp2493
sba(ipyboost.adtree
SplitterNode
p2494
(dp2495
g3
(lp2496
sg5
I138
sg6
g7
(g11
S'd~\xb0Y\xc1\x9df?'
p2497
tp2498
Rp2499
sg17
g7
(g11
S'w\x91\x95\x9an\xf6n\xbf'
p2500
tp2501
Rp2502
sg18
(lp2503
(ipyboost.conditions
TrueCondition
p2504
(dp2505
basg20
g1
sg21
(ipyboost.conditions
ThresholdCondition
p2506
(dp2507
g5
I9
sg40
Nsg41
g7
(g11
S'\x00\x00\x00H\xea\x06\xf0?'
p2508
tp2509
Rp2510
sbsg24
(lp2511
sba(ipyboost.adtree
SplitterNode
p2512
(dp2513
g3
(lp2514
sg5
I139
sg6
g7
(g11
S'\xb8\xa6\xef\xdev\xe1\x91?'
p2515
tp2516
Rp2517
sg17
g7
(g11
S'\xa8\xa75\xc2\xe1F\x84\xbf'
p2518
tp2519
Rp2520
sg18
(lp2521
(ipyboost.conditions
TrueCondition
p2522
(dp2523
basg20
g1
sg21
(ipyboost.conditions
ThresholdCondition
p2524
(dp2525
g5
I2
sg40
Nsg41
g7
(g11
S'\x00\x00\x00\xa0C5\xe0\xbf'
p2526
tp2527
Rp2528
sbsg24
(lp2529
sba(ipyboost.adtree
SplitterNode
p2530
(dp2531
g3
(lp2532
sg5
I140
sg6
g7
(g11
S'P\xa2\xf4\xb1KL\x89?'
p2533
tp2534
Rp2535
sg17
g7
(g11
S'\xd9W\xb6\x1c=\xd3\x9e\xbf'
p2536
tp2537
Rp2538
sg18
(lp2539
(ipyboost.conditions
TrueCondition
p2540
(dp2541
basg20
g1
sg21
(ipyboost.conditions
ThresholdCondition
p2542
(dp2543
g5
I13
sg40
Nsg41
g7
(g11
S'\x00\x00\x00\x88\xb8\x03\xf2?'
p2544
tp2545
Rp2546
sbsg24
(lp2547
sba(ipyboost.adtree
SplitterNode
p2548
(dp2549
g3
(lp2550
sg5
I141
sg6
g7
(g11
S'\xc9z\x9c_\xc0%\x85\xbf'
p2551
tp2552
Rp2553
sg17
g7
(g11
S'\x0f\xc3\xc0\x06\x83\x1fn?'
p2554
tp2555
Rp2556
sg18
(lp2557
(ipyboost.conditions
TrueCondition
p2558
(dp2559
basg20
g1
sg21
(ipyboost.conditions
ThresholdCondition
p2560
(dp2561
g5
I22
sg40
Nsg41
g7
(g11
S'\x00\x00\x00P\xb4\xff\xea?'
p2562
tp2563
Rp2564
sbsg24
(lp2565
sba(ipyboost.adtree
SplitterNode
p2566
(dp2567
g3
(lp2568
sg5
I142
sg6
g7
(g11
S'\x0e\x8c\xa9q\xa0\x80^?'
p2569
tp2570
Rp2571
sg17
g7
(g11
S'\xe3\xefu*\xa5 d\xbf'
p2572
tp2573
Rp2574
sg18
(lp2575
(ipyboost.conditions
TrueCondition
p2576
(dp2577
basg20
g1
sg21
(ipyboost.conditions
ThresholdCondition
p2578
(dp2579
g5
I15
sg40
Nsg41
g7
(g11
S'\x00\x00\x00 \xde|\xd2?'
p2580
tp2581
Rp2582
sbsg24
(lp2583
sba(ipyboost.adtree
SplitterNode
p2584
(dp2585
g3
(lp2586
sg5
I143
sg6
g7
(g11
S'H\xcbN.(\x10\x9f\xbf'
p2587
tp2588
Rp2589
sg17
g7
(g11
S'\x919`\x8e\xb6\xd2\x8b?'
p2590
tp2591
Rp2592
sg18
(lp2593
(ipyboost.conditions
TrueCondition
p2594
(dp2595
basg20
g1
sg21
(ipyboost.conditions
ThresholdCondition
p2596
(dp2597
g5
I13
sg40
Nsg41
g7
(g11
S'\x00\x00\x000K\xef\xe6?'
p2598
tp2599
Rp2600
sbsg24
(lp2601
sba(ipyboost.adtree
SplitterNode
p2602
(dp2603
g3
(lp2604
sg5
I144
sg6
g7
(g11
S'\xabpeR\x12L\x90?'
p2605
tp2606
Rp2607
sg17
g7
(g11
S'\x07Y\xc9\xaf:\xdd\x8d\xbf'
p2608
tp2609
Rp2610
sg18
(lp2611
(ipyboost.conditions
TrueCondition
p2612
(dp2613
basg20
g1
sg21
(ipyboost.conditions
ThresholdCondition
p2614
(dp2615
g5
I7
sg40
Nsg41
g7
(g11
S'\x00\x00\x00\x00>c\xa3\xbf'
p2616
tp2617
Rp2618
sbsg24
(lp2619
sba(ipyboost.adtree
SplitterNode
p2620
(dp2621
g3
(lp2622
sg5
I145
sg6
g7
(g11
S'@?\xe3\xea\xb2e\x81?'
p2623
tp2624
Rp2625
sg17
g7
(g11
S'\xfev$\xb5-\xdd\x87\xbf'
p2626
tp2627
Rp2628
sg18
(lp2629
(ipyboost.conditions
TrueCondition
p2630
(dp2631
basg20
g1
sg21
(ipyboost.conditions
ThresholdCondition
p2632
(dp2633
g5
I4
sg40
Nsg41
g7
(g11
S'\x00\x00\x00\x00\xb4\x81\xca?'
p2634
tp2635
Rp2636
sbsg24
(lp2637
sba(ipyboost.adtree
SplitterNode
p2638
(dp2639
g3
(lp2640
sg5
I146
sg6
g7
(g11
S'\xf4\xf7\xc2V~\x7f\x85\xbf'
p2641
tp2642
Rp2643
sg17
g7
(g11
S'\xb8\x95\xbbl/\xbe|?'
p2644
tp2645
Rp2646
sg18
(lp2647
(ipyboost.conditions
TrueCondition
p2648
(dp2649
basg20
g1
sg21
(ipyboost.conditions
ThresholdCondition
p2650
(dp2651
g5
I11
sg40
Nsg41
g7
(g11
S'\x00\x00\x00\x00\x071\xd8\xbf'
p2652
tp2653
Rp2654
sbsg24
(lp2655
sba(ipyboost.adtree
SplitterNode
p2656
(dp2657
g3
(lp2658
sg5
I147
sg6
g7
(g11
S'1\xeb\xd5\xf7\x00x\xab?'
p2659
tp2660
Rp2661
sg17
g7
(g11
S'\n\x17^\x88u\xdb\xab\xbf'
p2662
tp2663
Rp2664
sg18
(lp2665
(ipyboost.conditions
TrueCondition
p2666
(dp2667
basg20
g1
sg21
(ipyboost.conditions
ThresholdCondition
p2668
(dp2669
g5
I3
sg40
Nsg41
g7
(g11
S'\x00\x00\x00P\x025\xed?'
p2670
tp2671
Rp2672
sbsg24
(lp2673
sba(ipyboost.adtree
SplitterNode
p2674
(dp2675
g3
(lp2676
sg5
I148
sg6
g7
(g11
S';\xd6V\x1aOu\x82?'
p2677
tp2678
Rp2679
sg17
g7
(g11
S'\x01!u\xd7\xdcF\x8f\xbf'
p2680
tp2681
Rp2682
sg18
(lp2683
(ipyboost.conditions
TrueCondition
p2684
(dp2685
basg20
g1
sg21
(ipyboost.conditions
ThresholdCondition
p2686
(dp2687
g5
I4
sg40
Nsg41
g7
(g11
S'\x00\x00\x00\xc0\x0f\xd0\xd9?'
p2688
tp2689
Rp2690
sbsg24
(lp2691
sba(ipyboost.adtree
SplitterNode
p2692
(dp2693
g3
(lp2694
sg5
I149
sg6
g7
(g11
S'\xa9\xea+M:jn?'
p2695
tp2696
Rp2697
sg17
g7
(g11
S'\x9e$\xab\x9f\x11\xd5\x7f\xbf'
p2698
tp2699
Rp2700
sg18
(lp2701
(ipyboost.conditions
TrueCondition
p2702
(dp2703
basg20
g1
sg21
(ipyboost.conditions
ThresholdCondition
p2704
(dp2705
g5
I16
sg40
Nsg41
g7
(g11
S'\x00\x00\x00\x80\xc3b\xf4?'
p2706
tp2707
Rp2708
sbsg24
(lp2709
sba(ipyboost.adtree
SplitterNode
p2710
(dp2711
g3
(lp2712
sg5
I150
sg6
g7
(g11
S'l\xe6\xd9\x8b\x8c\xdai?'
p2713
tp2714
Rp2715
sg17
g7
(g11
S'?8\xf2E\xbcAa\xbf'
p2716
tp2717
Rp2718
sg18
(lp2719
(ipyboost.conditions
TrueCondition
p2720
(dp2721
basg20
g1
sg21
(ipyboost.conditions
ThresholdCondition
p2722
(dp2723
g5
I11
sg40
Nsg41
g7
(g11
S'\x00\x00\x00\x00\x071\xd8\xbf'
p2724
tp2725
Rp2726
sbsg24
(lp2727
sba(ipyboost.adtree
SplitterNode
p2728
(dp2729
g3
(lp2730
sg5
I151
sg6
g7
(g11
S'\xff\xff\xff\xff\xff\xff\x9f<'
p2731
tp2732
Rp2733
sg17
g7
(g11
S'\x00\x00\x00\x00\x00\x00\xa0\xbc'
p2734
tp2735
Rp2736
sg18
(lp2737
(ipyboost.conditions
TrueCondition
p2738
(dp2739
basg20
g1
sg21
(ipyboost.conditions
ThresholdCondition
p2740
(dp2741
g5
I11
sg40
Nsg41
g7
(g11
S'\x00\x00\x00\x00\x071\xd8\xbf'
p2742
tp2743
Rp2744
sbsg24
(lp2745
sba(ipyboost.adtree
SplitterNode
p2746
(dp2747
g3
(lp2748
sg5
I152
sg6
g7
(g11
S"'\xe5\x94^{\x88\x82\xbf"
p2749
tp2750
Rp2751
sg17
g7
(g11
S'\xdbj\x8e\xd4\xf9\xe5n?'
p2752
tp2753
Rp2754
sg18
(lp2755
(ipyboost.conditions
TrueCondition
p2756
(dp2757
basg20
g1
sg21
(ipyboost.conditions
ThresholdCondition
p2758
(dp2759
g5
I23
sg40
Nsg41
g7
(g11
S'\x00\x00\x00 \x12\x92\xef?'
p2760
tp2761
Rp2762
sbsg24
(lp2763
sba(ipyboost.adtree
SplitterNode
p2764
(dp2765
g3
(lp2766
sg5
I153
sg6
g7
(g11
S'\xe8\xa4\xba4&\x02\xb6?'
p2767
tp2768
Rp2769
sg17
g7
(g11
S'\xa6N\x19\x94~\xa2\x94\xbf'
p2770
tp2771
Rp2772
sg18
(lp2773
(ipyboost.conditions
TrueCondition
p2774
(dp2775
basg20
g1
sg21
(ipyboost.conditions
ThresholdCondition
p2776
(dp2777
g5
I4
sg40
Nsg41
g7
(g11
S'\x00\x00\x00H"\xe3\xf1\xbf'
p2778
tp2779
Rp2780
sbsg24
(lp2781
sba(ipyboost.adtree
SplitterNode
p2782
(dp2783
g3
(lp2784
sg5
I154
sg6
g7
(g11
S'2\x8d8b\xf5i\x91\xbf'
p2785
tp2786
Rp2787
sg17
g7
(g11
S'\xa5\x9dM\x89\x08\xe1\x8d?'
p2788
tp2789
Rp2790
sg18
(lp2791
(ipyboost.conditions
TrueCondition
p2792
(dp2793
basg20
g1
sg21
(ipyboost.conditions
ThresholdCondition
p2794
(dp2795
g5
I8
sg40
Nsg41
g7
(g11
S'\x00\x00\x00\xc0ub\xe1?'
p2796
tp2797
Rp2798
sbsg24
(lp2799
sba(ipyboost.adtree
SplitterNode
p2800
(dp2801
g3
(lp2802
sg5
I155
sg6
g7
(g11
S'\xb3\x05]\x1f\xd9\x88o\xbf'
p2803
tp2804
Rp2805
sg17
g7
(g11
S't7\xd8\x8f(\x7fb?'
p2806
tp2807
Rp2808
sg18
(lp2809
(ipyboost.conditions
TrueCondition
p2810
(dp2811
basg20
g1
sg21
(ipyboost.conditions
ThresholdCondition
p2812
(dp2813
g5
I17
sg40
Nsg41
g7
(g11
S'\x00\x00\x00\x80;\x08\xe7?'
p2814
tp2815
Rp2816
sbsg24
(lp2817
sba(ipyboost.adtree
SplitterNode
p2818
(dp2819
g3
(lp2820
sg5
I156
sg6
g7
(g11
S'\xaa}\x9cC\x0f\x11n\xbf'
p2821
tp2822
Rp2823
sg17
g7
(g11
S'j\xa3\x17\xd0\xe0Gu?'
p2824
tp2825
Rp2826
sg18
(lp2827
(ipyboost.conditions
TrueCondition
p2828
(dp2829
basg20
g1
sg21
(ipyboost.conditions
ThresholdCondition
p2830
(dp2831
g5
I14
sg40
Nsg41
g7
(g11
S'\x00\x00\x00\x00#]\xcf?'
p2832
tp2833
Rp2834
sbsg24
(lp2835
sba(ipyboost.adtree
SplitterNode
p2836
(dp2837
g3
(lp2838
sg5
I157
sg6
g7
(g11
S'\xd8\x96\x9d15oC\xbf'
p2839
tp2840
Rp2841
sg17
g7
(g11
S'\xd1e]\x14\x1a\xbdD?'
p2842
tp2843
Rp2844
sg18
(lp2845
(ipyboost.conditions
TrueCondition
p2846
(dp2847
basg20
g1
sg21
(ipyboost.conditions
ThresholdCondition
p2848
(dp2849
g5
I10
sg40
Nsg41
g7
(g11
S'\x00\x00\x00\x00\xf5\xfe\x87?'
p2850
tp2851
Rp2852
sbsg24
(lp2853
sba(ipyboost.adtree
SplitterNode
p2854
(dp2855
g3
(lp2856
sg5
I158
sg6
g7
(g11
S'\xf4Z\x8b\x17\xec\x90\x90\xbf'
p2857
tp2858
Rp2859
sg17
g7
(g11
S'\xac\xa6\x1e\x19\x01\xdd\x84?'
p2860
tp2861
Rp2862
sg18
(lp2863
(ipyboost.conditions
TrueCondition
p2864
(dp2865
basg20
g1
sg21
(ipyboost.conditions
ThresholdCondition
p2866
(dp2867
g5
I26
sg40
Nsg41
g7
(g11
S'\x00\x00\x00 QO\xec?'
p2868
tp2869
Rp2870
sbsg24
(lp2871
sba(ipyboost.adtree
SplitterNode
p2872
(dp2873
g3
(lp2874
sg5
I159
sg6
g7
(g11
S'\x92\xe6\xde\xdap\xb1{?'
p2875
tp2876
Rp2877
sg17
g7
(g11
S'\xd4?;\x80\xc2\xfc\x81\xbf'
p2878
tp2879
Rp2880
sg18
(lp2881
(ipyboost.conditions
TrueCondition
p2882
(dp2883
basg20
g1
sg21
(ipyboost.conditions
ThresholdCondition
p2884
(dp2885
g5
I8
sg40
Nsg41
g7
(g11
S'\x00\x00\x00\xa0\xb0\x13\xfa?'
p2886
tp2887
Rp2888
sbsg24
(lp2889
sba(ipyboost.adtree
SplitterNode
p2890
(dp2891
g3
(lp2892
sg5
I160
sg6
g7
(g11
S'\xc7\xa8\xecF\x9d]x?'
p2893
tp2894
Rp2895
sg17
g7
(g11
S'\x9dx\xd5,\xe1\x9a\x91\xbf'
p2896
tp2897
Rp2898
sg18
(lp2899
(ipyboost.conditions
TrueCondition
p2900
(dp2901
basg20
g1
sg21
(ipyboost.conditions
ThresholdCondition
p2902
(dp2903
g5
I21
sg40
Nsg41
g7
(g11
S'\x00\x00\x00(\xb6\x10\xf0?'
p2904
tp2905
Rp2906
sbsg24
(lp2907
sba(ipyboost.adtree
SplitterNode
p2908
(dp2909
g3
(lp2910
sg5
I161
sg6
g7
(g11
S'C\xe3\xa8v\xea\x9f\x80?'
p2911
tp2912
Rp2913
sg17
g7
(g11
S'A\xe7d\xe6\xdfE\x8d\xbf'
p2914
tp2915
Rp2916
sg18
(lp2917
(ipyboost.conditions
TrueCondition
p2918
(dp2919
basg20
g1
sg21
(ipyboost.conditions
ThresholdCondition
p2920
(dp2921
g5
I10
sg40
Nsg41
g7
(g11
S'\x00\x00\x00\x90\xf4;\xd5?'
p2922
tp2923
Rp2924
sbsg24
(lp2925
sba(ipyboost.adtree
SplitterNode
p2926
(dp2927
g3
(lp2928
sg5
I162
sg6
g7
(g11
S'\xfd\xcb\xb0]\xc5\xf7:?'
p2929
tp2930
Rp2931
sg17
g7
(g11
S']\xaf\x07\xad\xd5\x83A\xbf'
p2932
tp2933
Rp2934
sg18
(lp2935
(ipyboost.conditions
TrueCondition
p2936
(dp2937
basg20
g1
sg21
(ipyboost.conditions
ThresholdCondition
p2938
(dp2939
g5
I8
sg40
Nsg41
g7
(g11
S'\x00\x00\x00\xc0ub\xf1?'
p2940
tp2941
Rp2942
sbsg24
(lp2943
sba(ipyboost.adtree
SplitterNode
p2944
(dp2945
g3
(lp2946
sg5
I163
sg6
g7
(g11
S'\xc0\xf8\xf3\x05\xdd\xa5^\xbf'
p2947
tp2948
Rp2949
sg17
g7
(g11
S'@\x85~\x86\x81\xa2e?'
p2950
tp2951
Rp2952
sg18
(lp2953
(ipyboost.conditions
TrueCondition
p2954
(dp2955
basg20
g1
sg21
(ipyboost.conditions
ThresholdCondition
p2956
(dp2957
g5
I14
sg40
Nsg41
g7
(g11
S'\x00\x00\x00\x00#]\xcf?'
p2958
tp2959
Rp2960
sbsg24
(lp2961
sba(ipyboost.adtree
SplitterNode
p2962
(dp2963
g3
(lp2964
sg5
I164
sg6
g7
(g11
S'\x01\x00\x00\x00\x00\x00\xa8\xbc'
p2965
tp2966
Rp2967
sg17
g7
(g11
S'\xff\xff\xff\xff\xff\xff\x9f<'
p2968
tp2969
Rp2970
sg18
(lp2971
(ipyboost.conditions
TrueCondition
p2972
(dp2973
basg20
g1
sg21
(ipyboost.conditions
ThresholdCondition
p2974
(dp2975
g5
I14
sg40
Nsg41
g7
(g11
S'\x00\x00\x00\x00#]\xcf?'
p2976
tp2977
Rp2978
sbsg24
(lp2979
sba(ipyboost.adtree
SplitterNode
p2980
(dp2981
g3
(lp2982
sg5
I165
sg6
g7
(g11
S'H{\x8dS\xb7\xb3V?'
p2983
tp2984
Rp2985
sg17
g7
(g11
S'\xcd\x88X5\x99Tj\xbf'
p2986
tp2987
Rp2988
sg18
(lp2989
(ipyboost.conditions
TrueCondition
p2990
(dp2991
basg20
g1
sg21
(ipyboost.conditions
ThresholdCondition
p2992
(dp2993
g5
I15
sg40
Nsg41
g7
(g11
S'\x00\x00\x00h4&\xe3?'
p2994
tp2995
Rp2996
sbsg24
(lp2997
sba(ipyboost.adtree
SplitterNode
p2998
(dp2999
g3
(lp3000
sg5
I166
sg6
g7
(g11
S'\xca\x93\xbc\x1e\xc0_\x7f?'
p3001
tp3002
Rp3003
sg17
g7
(g11
S'\xad\x13\x9e\x92\xe0\xd8~\xbf'
p3004
tp3005
Rp3006
sg18
(lp3007
(ipyboost.conditions
TrueCondition
p3008
(dp3009
basg20
g1
sg21
(ipyboost.conditions
ThresholdCondition
p3010
(dp3011
g5
I25
sg40
Nsg41
g7
(g11
S'\x00\x00\x000\x8dA\xec?'
p3012
tp3013
Rp3014
sbsg24
(lp3015
sba(ipyboost.adtree
SplitterNode
p3016
(dp3017
g3
(lp3018
sg5
I167
sg6
g7
(g11
S'L\xb7.\xfa\xb9tk\xbf'
p3019
tp3020
Rp3021
sg17
g7
(g11
S'[\xaa\x117C\xfcr?'
p3022
tp3023
Rp3024
sg18
(lp3025
(ipyboost.conditions
TrueCondition
p3026
(dp3027
basg20
g1
sg21
(ipyboost.conditions
ThresholdCondition
p3028
(dp3029
g5
I19
sg40
Nsg41
g7
(g11
S'\x00\x00\x00\xe0n[\xd4?'
p3030
tp3031
Rp3032
sbsg24
(lp3033
sba(ipyboost.adtree
SplitterNode
p3034
(dp3035
g3
(lp3036
sg5
I168
sg6
g7
(g11
S'<\x17\x87&\x1e(\x9c\xbf'
p3037
tp3038
Rp3039
sg17
g7
(g11
S'\xca\xc1\xdb$\xa0u\x82?'
p3040
tp3041
Rp3042
sg18
(lp3043
(ipyboost.conditions
TrueCondition
p3044
(dp3045
basg20
g1
sg21
(ipyboost.conditions
ThresholdCondition
p3046
(dp3047
g5
I26
sg40
Nsg41
g7
(g11
S'\x00\x00\x00\xb0u\x06\xea?'
p3048
tp3049
Rp3050
sbsg24
(lp3051
sba(ipyboost.adtree
SplitterNode
p3052
(dp3053
g3
(lp3054
sg5
I169
sg6
g7
(g11
S'\xdeQ\xb6\r\xf0\xe9t\xbf'
p3055
tp3056
Rp3057
sg17
g7
(g11
S'1\x9c)\xf2x\xf0q?'
p3058
tp3059
Rp3060
sg18
(lp3061
(ipyboost.conditions
TrueCondition
p3062
(dp3063
basg20
g1
sg21
(ipyboost.conditions
ThresholdCondition
p3064
(dp3065
g5
I8
sg40
Nsg41
g7
(g11
S'\x00\x00\x00\xc0ub\xe1?'
p3066
tp3067
Rp3068
sbsg24
(lp3069
sba(ipyboost.adtree
SplitterNode
p3070
(dp3071
g3
(lp3072
sg5
I170
sg6
g7
(g11
S'\xf4\xc2\x0ft.\x0f\x99?'
p3073
tp3074
Rp3075
sg17
g7
(g11
S'\xab\x88\x1aE\x9b\x08t\xbf'
p3076
tp3077
Rp3078
sg18
(lp3079
(ipyboost.conditions
TrueCondition
p3080
(dp3081
basg20
g1
sg21
(ipyboost.conditions
ThresholdCondition
p3082
(dp3083
g5
I27
sg40
Nsg41
g7
(g11
S'\x00\x00\x00\x00L/\xe7?'
p3084
tp3085
Rp3086
sbsg24
(lp3087
sba(ipyboost.adtree
SplitterNode
p3088
(dp3089
g3
(lp3090
sg5
I171
sg6
g7
(g11
S'!\x9aJ+\xf4\xb5Q?'
p3091
tp3092
Rp3093
sg17
g7
(g11
S'\x99\xcb\x98\xd8\xc2\x9f0\xbf'
p3094
tp3095
Rp3096
sg18
(lp3097
(ipyboost.conditions
TrueCondition
p3098
(dp3099
basg20
g1
sg21
(ipyboost.conditions
ThresholdCondition
p3100
(dp3101
g5
I4
sg40
Nsg41
g7
(g11
S'\x00\x00\x00H"\xe3\xf1\xbf'
p3102
tp3103
Rp3104
sbsg24
(lp3105
sba(ipyboost.adtree
SplitterNode
p3106
(dp3107
g3
(lp3108
sg5
I172
sg6
g7
(g11
S'\xa7KF\xc7J\x8cv?'
p3109
tp3110
Rp3111
sg17
g7
(g11
S'\xfd\xa0\xf4\x97\x91\xd3a\xbf'
p3112
tp3113
Rp3114
sg18
(lp3115
(ipyboost.conditions
TrueCondition
p3116
(dp3117
basg20
g1
sg21
(ipyboost.conditions
ThresholdCondition
p3118
(dp3119
g5
I27
sg40
Nsg41
g7
(g11
S'\x00\x00\x00\xf0\x87\xe0\xe8?'
p3120
tp3121
Rp3122
sbsg24
(lp3123
sba(ipyboost.adtree
SplitterNode
p3124
(dp3125
g3
(lp3126
sg5
I173
sg6
g7
(g11
S'Tj]\t\xef\xde#\xbf'
p3127
tp3128
Rp3129
sg17
g7
(g11
S'\x8fN1\x9e\xf5\x80+?'
p3130
tp3131
Rp3132
sg18
(lp3133
(ipyboost.conditions
TrueCondition
p3134
(dp3135
basg20
g1
sg21
(ipyboost.conditions
ThresholdCondition
p3136
(dp3137
g5
I19
sg40
Nsg41
g7
(g11
S'\x00\x00\x00\xe0n[\xd4?'
p3138
tp3139
Rp3140
sbsg24
(lp3141
sba(ipyboost.adtree
SplitterNode
p3142
(dp3143
g3
(lp3144
sg5
I174
sg6
g7
(g11
S'<.\xacl\xf2K\x90\xbf'
p3145
tp3146
Rp3147
sg17
g7
(g11
S'LB:\x1b\x82\\u?'
p3148
tp3149
Rp3150
sg18
(lp3151
(ipyboost.conditions
TrueCondition
p3152
(dp3153
basg20
g1
sg21
(ipyboost.conditions
ThresholdCondition
p3154
(dp3155
g5
I26
sg40
Nsg41
g7
(g11
S'\x00\x00\x00\xb0u\x06\xea?'
p3156
tp3157
Rp3158
sbsg24
(lp3159
sba(ipyboost.adtree
SplitterNode
p3160
(dp3161
g3
(lp3162
sg5
I175
sg6
g7
(g11
S'\x98\xb4R\xac\x0f\xec\x87?'
p3163
tp3164
Rp3165
sg17
g7
(g11
S'\x0eE\x1f"C\xffc\xbf'
p3166
tp3167
Rp3168
sg18
(lp3169
(ipyboost.conditions
TrueCondition
p3170
(dp3171
basg20
g1
sg21
(ipyboost.conditions
ThresholdCondition
p3172
(dp3173
g5
I18
sg40
Nsg41
g7
(g11
S'\x00\x00\x00 \x7f5\xef\xbf'
p3174
tp3175
Rp3176
sbsg24
(lp3177
sba(ipyboost.adtree
SplitterNode
p3178
(dp3179
g3
(lp3180
sg5
I176
sg6
g7
(g11
S'-\xe7\xc4\x95=\x80o\xbf'
p3181
tp3182
Rp3183
sg17
g7
(g11
S'\x13\x11\x16\x1b\xcc\x8aV?'
p3184
tp3185
Rp3186
sg18
(lp3187
(ipyboost.conditions
TrueCondition
p3188
(dp3189
basg20
g1
sg21
(ipyboost.conditions
ThresholdCondition
p3190
(dp3191
g5
I22
sg40
Nsg41
g7
(g11
S'\x00\x00\x00P\xb4\xff\xea?'
p3192
tp3193
Rp3194
sbsg24
(lp3195
sba(ipyboost.adtree
SplitterNode
p3196
(dp3197
g3
(lp3198
sg5
I177
sg6
g7
(g11
S'*\x0c\xab\xa3\xb3\x13\xb0?'
p3199
tp3200
Rp3201
sg17
g7
(g11
S'|\x99P\xa6F\x1d\xa0\xbf'
p3202
tp3203
Rp3204
sg18
(lp3205
(ipyboost.conditions
TrueCondition
p3206
(dp3207
basg20
g1
sg21
(ipyboost.conditions
ThresholdCondition
p3208
(dp3209
g5
I9
sg40
Nsg41
g7
(g11
S'\x00\x00\x00\x00\xe8\x1b\xe8?'
p3210
tp3211
Rp3212
sbsg24
(lp3213
sba(ipyboost.adtree
SplitterNode
p3214
(dp3215
g3
(lp3216
sg5
I178
sg6
g7
(g11
S'\x94\x12\x96\x82\x8a\x85\x96?'
p3217
tp3218
Rp3219
sg17
g7
(g11
S'%M\x8c\xe2@\xaf\xa5\xbf'
p3220
tp3221
Rp3222
sg18
(lp3223
(ipyboost.conditions
TrueCondition
p3224
(dp3225
basg20
g1
sg21
(ipyboost.conditions
ThresholdCondition
p3226
(dp3227
g5
I20
sg40
Nsg41
g7
(g11
S'\x00\x00\x00 \xd1\xd0\xe8?'
p3228
tp3229
Rp3230
sbsg24
(lp3231
sba(ipyboost.adtree
SplitterNode
p3232
(dp3233
g3
(lp3234
sg5
I179
sg6
g7
(g11
S's\t\xa1\x07\xa3\xa8y?'
p3235
tp3236
Rp3237
sg17
g7
(g11
S'ar\xa73\xdc\x0c\x8b\xbf'
p3238
tp3239
Rp3240
sg18
(lp3241
(ipyboost.conditions
TrueCondition
p3242
(dp3243
basg20
g1
sg21
(ipyboost.conditions
ThresholdCondition
p3244
(dp3245
g5
I16
sg40
Nsg41
g7
(g11
S'\x00\x00\x00\x80\xc3b\xf4?'
p3246
tp3247
Rp3248
sbsg24
(lp3249
sba(ipyboost.adtree
SplitterNode
p3250
(dp3251
g3
(lp3252
sg5
I180
sg6
g7
(g11
S'F  *\xbdXY?'
p3253
tp3254
Rp3255
sg17
g7
(g11
S'\x03\xdf\xb1d\xf3hh\xbf'
p3256
tp3257
Rp3258
sg18
(lp3259
(ipyboost.conditions
TrueCondition
p3260
(dp3261
basg20
g1
sg21
(ipyboost.conditions
ThresholdCondition
p3262
(dp3263
g5
I20
sg40
Nsg41
g7
(g11
S'\x00\x00\x00 \xd1\xd0\xe8?'
p3264
tp3265
Rp3266
sbsg24
(lp3267
sba(ipyboost.adtree
SplitterNode
p3268
(dp3269
g3
(lp3270
sg5
I181
sg6
g7
(g11
S'\x12=W\xe0\x8a\x0f\xaa?'
p3271
tp3272
Rp3273
sg17
g7
(g11
S'\x91\x90\x16\xc7\xba\x81\x91\xbf'
p3274
tp3275
Rp3276
sg18
(lp3277
(ipyboost.conditions
TrueCondition
p3278
(dp3279
basg20
g1
sg21
(ipyboost.conditions
ThresholdCondition
p3280
(dp3281
g5
I24
sg40
Nsg41
g7
(g11
S'\x00\x00\x00\x10LV\xe8?'
p3282
tp3283
Rp3284
sbsg24
(lp3285
sba(ipyboost.adtree
SplitterNode
p3286
(dp3287
g3
(lp3288
sg5
I182
sg6
g7
(g11
S'\x14\xcd\xfb\xde\xb3{G?'
p3289
tp3290
Rp3291
sg17
g7
(g11
S'~Fb\xf5\x07\x91P\xbf'
p3292
tp3293
Rp3294
sg18
(lp3295
(ipyboost.conditions
TrueCondition
p3296
(dp3297
basg20
g1
sg21
(ipyboost.conditions
ThresholdCondition
p3298
(dp3299
g5
I14
sg40
Nsg41
g7
(g11
S'\x00\x00\x00\x00#]\xcf?'
p3300
tp3301
Rp3302
sbsg24
(lp3303
sba(ipyboost.adtree
SplitterNode
p3304
(dp3305
g3
(lp3306
sg5
I183
sg6
g7
(g11
S'\x12O\x93\xab\x14\x07\xca\xbf'
p3307
tp3308
Rp3309
sg17
g7
(g11
S'\x1aU\xb6\xf0\xa7\r\x96?'
p3310
tp3311
Rp3312
sg18
(lp3313
(ipyboost.conditions
TrueCondition
p3314
(dp3315
basg20
g1
sg21
(ipyboost.conditions
ThresholdCondition
p3316
(dp3317
g5
I5
sg40
Nsg41
g7
(g11
S'\x00\x00\x00\x80\xe4\x88\xe0?'
p3318
tp3319
Rp3320
sbsg24
(lp3321
sba(ipyboost.adtree
SplitterNode
p3322
(dp3323
g3
(lp3324
sg5
I184
sg6
g7
(g11
S'\xf6oc \x1b\x0ep\xbf'
p3325
tp3326
Rp3327
sg17
g7
(g11
S'\xf2)\x05\xc1\x16+\x87?'
p3328
tp3329
Rp3330
sg18
(lp3331
(ipyboost.conditions
TrueCondition
p3332
(dp3333
basg20
g1
sg21
(ipyboost.conditions
ThresholdCondition
p3334
(dp3335
g5
I21
sg40
Nsg41
g7
(g11
S'\x00\x00\x00(\xb6\x10\xf0?'
p3336
tp3337
Rp3338
sbsg24
(lp3339
sba(ipyboost.adtree
SplitterNode
p3340
(dp3341
g3
(lp3342
sg5
I185
sg6
g7
(g11
S'\x08>\x05vj%R\xbf'
p3343
tp3344
Rp3345
sg17
g7
(g11
S'0=\xcc\xb5\xe5*c?'
p3346
tp3347
Rp3348
sg18
(lp3349
(ipyboost.conditions
TrueCondition
p3350
(dp3351
basg20
g1
sg21
(ipyboost.conditions
ThresholdCondition
p3352
(dp3353
g5
I16
sg40
Nsg41
g7
(g11
S'\x00\x00\x00\x80\xc3b\xf4?'
p3354
tp3355
Rp3356
sbsg24
(lp3357
sba(ipyboost.adtree
SplitterNode
p3358
(dp3359
g3
(lp3360
sg5
I186
sg6
g7
(g11
S'\xf10v\xb3E\xc9\x83\xbf'
p3361
tp3362
Rp3363
sg17
g7
(g11
S'\x1d1\xc6a\xbe#w?'
p3364
tp3365
Rp3366
sg18
(lp3367
(ipyboost.conditions
TrueCondition
p3368
(dp3369
basg20
g1
sg21
(ipyboost.conditions
ThresholdCondition
p3370
(dp3371
g5
I17
sg40
Nsg41
g7
(g11
S'\x00\x00\x00\x80;\x08\xe7?'
p3372
tp3373
Rp3374
sbsg24
(lp3375
sba(ipyboost.adtree
SplitterNode
p3376
(dp3377
g3
(lp3378
sg5
I187
sg6
g7
(g11
S"\xa9\x14'w\xcb\x0c\x87\xbf"
p3379
tp3380
Rp3381
sg17
g7
(g11
S'+\xd7O\xb1\xa9l\x88?'
p3382
tp3383
Rp3384
sg18
(lp3385
(ipyboost.conditions
TrueCondition
p3386
(dp3387
basg20
g1
sg21
(ipyboost.conditions
ThresholdCondition
p3388
(dp3389
g5
I10
sg40
Nsg41
g7
(g11
S'\x00\x00\x00\x00\xf5\xfe\x87?'
p3390
tp3391
Rp3392
sbsg24
(lp3393
sba(ipyboost.adtree
SplitterNode
p3394
(dp3395
g3
(lp3396
sg5
I188
sg6
g7
(g11
S'\xb8\xd0\xc4\xf6\xa9\xc5z?'
p3397
tp3398
Rp3399
sg17
g7
(g11
S'\xf8\xc5\xa55\\\r{\xbf'
p3400
tp3401
Rp3402
sg18
(lp3403
(ipyboost.conditions
TrueCondition
p3404
(dp3405
basg20
g1
sg21
(ipyboost.conditions
ThresholdCondition
p3406
(dp3407
g5
I3
sg40
Nsg41
g7
(g11
S'\x00\x00\x00P\x025\xed?'
p3408
tp3409
Rp3410
sbsg24
(lp3411
sba(ipyboost.adtree
SplitterNode
p3412
(dp3413
g3
(lp3414
sg5
I189
sg6
g7
(g11
S'\xf2\xbf\xe0\xf1\x04\xe5\xb7\xbf'
p3415
tp3416
Rp3417
sg17
g7
(g11
S'N\xa6hp\xf7\xb0\xb3?'
p3418
tp3419
Rp3420
sg18
(lp3421
(ipyboost.conditions
TrueCondition
p3422
(dp3423
basg20
g1
sg21
(ipyboost.conditions
ThresholdCondition
p3424
(dp3425
g5
I22
sg40
Nsg41
g7
(g11
S'\x00\x00\x00\x00[\x7f\xed?'
p3426
tp3427
Rp3428
sbsg24
(lp3429
sba(ipyboost.adtree
SplitterNode
p3430
(dp3431
g3
(lp3432
sg5
I190
sg6
g7
(g11
S'`^v.\xa7\xfd\x85?'
p3433
tp3434
Rp3435
sg17
g7
(g11
S'\xdeA\x014c{\x8c\xbf'
p3436
tp3437
Rp3438
sg18
(lp3439
(ipyboost.conditions
TrueCondition
p3440
(dp3441
basg20
g1
sg21
(ipyboost.conditions
ThresholdCondition
p3442
(dp3443
g5
I8
sg40
Nsg41
g7
(g11
S'\x00\x00\x00\xa0\xb0\x13\xfa?'
p3444
tp3445
Rp3446
sbsg24
(lp3447
sba(ipyboost.adtree
SplitterNode
p3448
(dp3449
g3
(lp3450
sg5
I191
sg6
g7
(g11
S'\xc8\x15\x1e\x9c\x07\xf0B?'
p3451
tp3452
Rp3453
sg17
g7
(g11
S'\xae\x9fL\x7fcKI\xbf'
p3454
tp3455
Rp3456
sg18
(lp3457
(ipyboost.conditions
TrueCondition
p3458
(dp3459
basg20
g1
sg21
(ipyboost.conditions
ThresholdCondition
p3460
(dp3461
g5
I15
sg40
Nsg41
g7
(g11
S'\x00\x00\x00 \xde|\xd2?'
p3462
tp3463
Rp3464
sbsg24
(lp3465
sba(ipyboost.adtree
SplitterNode
p3466
(dp3467
g3
(lp3468
sg5
I192
sg6
g7
(g11
S'\xfei\xd1[%\xc5\x8c?'
p3469
tp3470
Rp3471
sg17
g7
(g11
S'\xda\xe1\xc7(\xd9\xfd\x8b\xbf'
p3472
tp3473
Rp3474
sg18
(lp3475
(ipyboost.conditions
TrueCondition
p3476
(dp3477
basg20
g1
sg21
(ipyboost.conditions
ThresholdCondition
p3478
(dp3479
g5
I25
sg40
Nsg41
g7
(g11
S'\x00\x00\x000\x8dA\xec?'
p3480
tp3481
Rp3482
sbsg24
(lp3483
sba(ipyboost.adtree
SplitterNode
p3484
(dp3485
g3
(lp3486
sg5
I193
sg6
g7
(g11
S'\xe1\xf3\xa6\xc2tq\x85?'
p3487
tp3488
Rp3489
sg17
g7
(g11
S'\xa0\xcb\x96?\xe7\xd0z\xbf'
p3490
tp3491
Rp3492
sg18
(lp3493
(ipyboost.conditions
TrueCondition
p3494
(dp3495
basg20
g1
sg21
(ipyboost.conditions
ThresholdCondition
p3496
(dp3497
g5
I26
sg40
Nsg41
g7
(g11
S'\x00\x00\x00 QO\xec?'
p3498
tp3499
Rp3500
sbsg24
(lp3501
sba(ipyboost.adtree
SplitterNode
p3502
(dp3503
g3
(lp3504
sg5
I194
sg6
g7
(g11
S'\xb5\x95\xc2\xd1\x1a\xd7\xb5?'
p3505
tp3506
Rp3507
sg17
g7
(g11
S'\xef#\xd1\xd3\x19\x00\x9f\xbf'
p3508
tp3509
Rp3510
sg18
(lp3511
(ipyboost.conditions
TrueCondition
p3512
(dp3513
basg20
g1
sg21
(ipyboost.conditions
ThresholdCondition
p3514
(dp3515
g5
I22
sg40
Nsg41
g7
(g11
S'\x00\x00\x00P\xb4\xff\xea?'
p3516
tp3517
Rp3518
sbsg24
(lp3519
sba(ipyboost.adtree
SplitterNode
p3520
(dp3521
g3
(lp3522
sg5
I195
sg6
g7
(g11
S'r\xc9\x8d]5)\xb5?'
p3523
tp3524
Rp3525
sg17
g7
(g11
S',\xafF1\xc4\xc9\xa6\xbf'
p3526
tp3527
Rp3528
sg18
(lp3529
(ipyboost.conditions
TrueCondition
p3530
(dp3531
basg20
g1
sg21
(ipyboost.conditions
ThresholdCondition
p3532
(dp3533
g5
I27
sg40
Nsg41
g7
(g11
S'\x00\x00\x00px\xc6\xe9?'
p3534
tp3535
Rp3536
sbsg24
(lp3537
sba(ipyboost.adtree
SplitterNode
p3538
(dp3539
g3
(lp3540
sg5
I196
sg6
g7
(g11
S'x\xf5\x14R$\x88~\xbf'
p3541
tp3542
Rp3543
sg17
g7
(g11
S'}\xf5\xd6O\xef\xdcq?'
p3544
tp3545
Rp3546
sg18
(lp3547
(ipyboost.conditions
TrueCondition
p3548
(dp3549
basg20
g1
sg21
(ipyboost.conditions
ThresholdCondition
p3550
(dp3551
g5
I17
sg40
Nsg41
g7
(g11
S'\x00\x00\x00\x80;\x08\xe7?'
p3552
tp3553
Rp3554
sbsg24
(lp3555
sba(ipyboost.adtree
SplitterNode
p3556
(dp3557
g3
(lp3558
sg5
I197
sg6
g7
(g11
S'y\r\x05\x10\xd1\x00a?'
p3559
tp3560
Rp3561
sg17
g7
(g11
S'\xaa~f=\x91\xd2?\xbf'
p3562
tp3563
Rp3564
sg18
(lp3565
(ipyboost.conditions
TrueCondition
p3566
(dp3567
basg20
g1
sg21
(ipyboost.conditions
ThresholdCondition
p3568
(dp3569
g5
I4
sg40
Nsg41
g7
(g11
S'\x00\x00\x00H"\xe3\xf1\xbf'
p3570
tp3571
Rp3572
sbsg24
(lp3573
sba(ipyboost.adtree
SplitterNode
p3574
(dp3575
g3
(lp3576
sg5
I198
sg6
g7
(g11
S'\xae1\x18\xa0\xa5\xe1<\xbf'
p3577
tp3578
Rp3579
sg17
g7
(g11
S'!\x14\xb3"\x9c\xf59?'
p3580
tp3581
Rp3582
sg18
(lp3583
(ipyboost.conditions
TrueCondition
p3584
(dp3585
basg20
g1
sg21
(ipyboost.conditions
ThresholdCondition
p3586
(dp3587
g5
I6
sg40
Nsg41
g7
(g11
S'\x00\x00\x00\x80G\xe2\xaa\xbf'
p3588
tp3589
Rp3590
sbsg24
(lp3591
sba(ipyboost.adtree
SplitterNode
p3592
(dp3593
g3
(lp3594
sg5
I199
sg6
g7
(g11
S'\xd2r}\x9c\x1d\x8c\xf0\xbe'
p3595
tp3596
Rp3597
sg17
g7
(g11
S'\xec\xb2\xf4\xc6\x99\\\xe3>'
p3598
tp3599
Rp3600
sg18
(lp3601
(ipyboost.conditions
TrueCondition
p3602
(dp3603
basg20
g1
sg21
(ipyboost.conditions
ThresholdCondition
p3604
(dp3605
g5
I17
sg40
Nsg41
g7
(g11
S'\x00\x00\x00\x80;\x08\xe7?'
p3606
tp3607
Rp3608
sbsg24
(lp3609
sba(ipyboost.adtree
SplitterNode
p3610
(dp3611
g3
(lp3612
sg5
I200
sg6
g7
(g11
S'*\x83\xde\x19\x94\xd1g\xbf'
p3613
tp3614
Rp3615
sg17
g7
(g11
S'&\xa2n\xbdm\xb5n?'
p3616
tp3617
Rp3618
sg18
(lp3619
(ipyboost.conditions
TrueCondition
p3620
(dp3621
basg20
g1
sg21
(ipyboost.conditions
ThresholdCondition
p3622
(dp3623
g5
I8
sg40
Nsg41
g7
(g11
S'\x00\x00\x00\xa0\xb0\x13\xfa?'
p3624
tp3625
Rp3626
sbsg24
(lp3627
sba.